(lp1
S'1812_Overture'
p2
aS'2_(number)'
p3
aS'3_(number)'
p4
aS'4_(number)'
p5
aS'5_(number)'
p6
aS'7_(number)'
p7
aS'A_Bend_in_the_River'
p8
aS'A_Burial_At_Ornans'
p9
aS"A_Doll's_House"
p10
aS'A_Farewell_to_Arms'
p11
aS'A_Grain_of_Wheat'
p12
aS'A_Handful_of_Dust'
p13
aS'A_House_for_Mr_Biswas'
p14
aS'A_Passage_to_India'
p15
aS'A_Raisin_in_the_Sun'
p16
aS'A_Room_with_a_View'
p17
aS'A_Season_in_Hell'
p18
aS'A_Shropshire_Lad'
p19
aS'A_Streetcar_Named_Desire_(play)'
p20
aS'A_Sunday_Afternoon_on_the_Island_of_La_Grande_Jatte'
p21
aS'A_Tale_of_Two_Cities'
p22
aS'A_J_Ayer'
p23
aS'Aaron_Copland'
p24
aS'Aaron'
p25
aS'Abbasid_Caliphate'
p26
aS'Abraham'
p27
aS'Abscisic_acid'
p28
aS'Academic_Festival_Overture'
p29
aS'Acceleration'
p30
aS'Acetone'
p31
aS'Acid'
p32
aS'Actin'
p33
aS'Action_(physics)'
p34
aS'Activation_energy'
p35
aS'Adam_Bede'
p36
aS'Adam_Smith'
p37
aS'Adolf_Hitler'
p38
aS'Adonais'
p39
aS'Aeneas'
p40
aS'AEthelred_the_Unready'
p41
aS'Agni'
p42
aS'Ahura_Mazda'
p43
aS'Akbar'
p44
aS'Alan_Paton'
p45
aS'Alan_Turing'
p46
aS'Alaska'
p47
aS'Albania'
p48
aS'Albert_Camus'
p49
aS'Albrecht_Durer'
p50
aS'Aldol_condensation'
p51
aS'Aldosterone'
p52
aS'Aldous_Huxley'
p53
aS'Aleksandr_Solzhenitsyn'
p54
aS'Alexander_Hamilton'
p55
aS'Alexander_Pope'
p56
aS'Alexander_Pushkin'
p57
aS'Alexander_the_Great'
p58
aS'Alexis_de_Tocqueville'
p59
aS'Alfred_Marshall'
p60
aS'Alfred_Stieglitz'
p61
aS'Alfred_the_Great'
p62
aS'Alfred_Lord_Tennyson'
p63
aS'Algeria'
p64
aS'Alkene'
p65
aS'Alkyne'
p66
aS'All_Quiet_on_the_Western_Front'
p67
aS'Alpha_particle'
p68
aS"Alzheimer's_disease"
p69
aS'Ambrose_Bierce'
p70
aS'Amino_acid'
p71
aS'Ammonia'
p72
aS'An_American_Tragedy'
p73
aS'An_Enemy_of_the_People'
p74
aS'An_Essay_Concerning_Human_Understanding'
p75
aS'Anansi'
p76
aS'Anatole_France'
p77
aS'Ancient_Corinth'
p78
aS'Andrea_del_Verrocchio'
p79
aS'Andrea_Mantegna'
p80
aS'Andrea_Palladio'
p81
aS'Andrew_Jackson'
p82
aS'Andromeda_Galaxy'
p83
aS'Andy_Warhol'
p84
aS'Angels_in_America:_A_Gay_Fantasia_on_National_Themes'
p85
aS'Angola'
p86
aS'Anna_Akhmatova'
p87
aS'Anna_Karenina'
p88
aS'Anomie'
p89
aS'Antarctica'
p90
aS'Anti-Masonic_Party'
p91
aS'Antoine_Watteau'
p92
aS'Anton_Bruckner'
p93
aS'Anton_Chekhov'
p94
aS'Antonin_Dvorak'
p95
aS'Antonio_da_Correggio'
p96
aS'Aorta'
p97
aS'Apartheid'
p98
aS'Aphrodite'
p99
aS'Apollo'
p100
aS'Apology_(Plato)'
p101
aS'Apoptosis'
p102
aS'Aquifer'
p103
aS'Aral_Sea'
p104
aS'Aram_Khachaturian'
p105
aS'Archibald_MacLeish'
p106
aS'Archimedes'
p107
aS'Ares'
p108
aS'Argentina'
p109
aS'Aristophanes'
p110
aS'Arizona'
p111
aS'Aromaticity'
p112
aS'Arrhenius_equation'
p113
aS"Arrow's_impossibility_theorem"
p114
aS'Artemis'
p115
aS'Arthropod'
p116
aS'Arthur_Miller'
p117
aS'Arthur_Schopenhauer'
p118
aS'Arthur_Wellesley_1st_Duke_of_Wellington'
p119
aS'As_You_Like_It'
p120
aS'Ashanti_Empire'
p121
aS'Ashikaga_shogunate'
p122
aS'Atacama_Desert'
p123
aS'Atahualpa'
p124
aS'Athena'
p125
aS'Athens'
p126
aS'ATP_synthase'
p127
aS'Aubrey_Beardsley'
p128
aS'Auger_effect'
p129
aS'August_Wilson'
p130
aS'Auguste_Rodin'
p131
aS'Augustine_of_Hippo'
p132
aS'Aunt_Julia_and_the_Scriptwriter'
p133
aS'Austria'
p134
aS'Auxin'
p135
aS'Axum'
p136
aS'Azide'
p137
aS'Aztec_Empire'
p138
aS'Aztec'
p139
aS'Babbitt_(novel)'
p140
aS'Babur'
p141
aS'Baldr'
p142
aS'Baptism'
p143
aS'Bartleby_the_Scrivener'
p144
aS'Battle_of_Adrianople'
p145
aS'Battle_of_Antietam'
p146
aS'Battle_of_Austerlitz'
p147
aS'Battle_of_Bannockburn'
p148
aS'Battle_of_Bosworth_Field'
p149
aS'Battle_of_Gaugamela'
p150
aS'Battle_of_Gettysburg'
p151
aS'Battle_of_Hastings'
p152
aS'Battle_of_Leipzig'
p153
aS'Battle_of_Manzikert'
p154
aS'Battle_of_Marathon'
p155
aS'Battle_of_Marengo'
p156
aS'Battle_of_Plassey'
p157
aS'Battle_of_Salamis'
p158
aS'Battle_of_the_Boyne'
p159
aS'Battle_of_the_Bulge'
p160
aS'Battle_of_the_Thames'
p161
aS'Battle_of_Trenton'
p162
aS'Battle_of_Zama'
p163
aS'Battles_of_Saratoga'
p164
aS'Bear'
p165
aS'Bedrich_Smetana'
p166
aS'Bee'
p167
aS'Beijing'
p168
aS'Bela_Bartok'
p169
aS'Belgium'
p170
aS'Bellerophon'
p171
aS'Ben_Jonson'
p172
aS'Benedict_Arnold'
p173
aS'Benito_Cereno'
p174
aS'Benjamin_Britten'
p175
aS'Benjamin_Disraeli'
p176
aS'Benjamin_Franklin'
p177
aS'Benvenuto_Cellini'
p178
aS'Benzene'
p179
aS'Beowulf'
p180
aS'Bernhard_Riemann'
p181
aS"Bernoulli's_principle"
p182
aS'Bessel_function'
p183
aS'Beyond_Good_and_Evil'
p184
aS'Bigger_Thomas'
p185
aS'Bile'
p186
aS'Billy_Budd'
p187
aS'Birefringence'
p188
aS"Bishops'_Wars"
p189
aS'Black_Boy'
p190
aS'Black_hole'
p191
aS'Black_Sea'
p192
aS'Blindness_(novel)'
p193
aS'Blue'
p194
aS'Boat'
p195
aS'Bodhisattva'
p196
aS'Bogomilism'
p197
aS'Bolivia'
p198
aS'Book_of_Deuteronomy'
p199
aS'Book_of_Genesis'
p200
aS'Book_of_Isaiah'
p201
aS'Book_of_Leviticus'
p202
aS'Book_of_Mormon'
p203
aS'Borneo'
p204
aS'Bose-Einstein_condensate'
p205
aS'Boston_Massacre'
p206
aS'Boston'
p207
aS'Botswana'
p208
aS'Brahma'
p209
aS'Brave_New_World'
p210
aS'Brazil'
p211
aS'Brian_Mulroney'
p212
aS'Brideshead_Revisited'
p213
aS'Bridge'
p214
aS'Bronislaw_Malinowski'
p215
aS'Brown_dwarf'
p216
aS'Brownian_motion'
p217
aS'Bruno_Bettelheim'
p218
aS'Buenos_Aires'
p219
aS'Bulgaria'
p220
aS'Burma'
p221
aS'Cache_(computing)'
p222
aS'Cadmus'
p223
aS'Caenorhabditis_elegans'
p224
aS'Cain'
p225
aS'Cairo'
p226
aS'California'
p227
aS'Cambodia'
p228
aS'Candide'
p229
aS'Cane_(novel)'
p230
aS'Canto_General'
p231
aS'Cao_Cao'
p232
aS'Capacitor'
p233
aS'Caravaggio'
p234
aS'Carboniferous'
p235
aS'Cardinal_Mazarin'
p236
aS'Carl_Friedrich_Gauss'
p237
aS'Carl_Nielsen'
p238
aS'Carl_Rogers'
p239
aS'Caroline_affair'
p240
aS'Carthage'
p241
aS'Cartilage'
p242
aS'Casimir_effect'
p243
aS'Cat_on_a_Hot_Tin_Roof'
p244
aS"Cat's_Cradle"
p245
aS'Catalysis'
p246
aS'Cato_Street_Conspiracy'
p247
aS'Cats_in_ancient_Egypt'
p248
aS'Catullus'
p249
aS'Cell_nucleus'
p250
aS'Cello'
p251
aS'Central_limit_theorem'
p252
aS'Cepheid_variable'
p253
aS'Cerebellum'
p254
aS'Cesar_Franck'
p255
aS'Chaco_War'
p256
aS'Chandragupta_Maurya'
p257
aS'Chandrasekhar_limit'
p258
aS'Charlemagne'
p259
aS'Charles_Evans_Hughes'
p260
aS'Charles_I_of_England'
p261
aS'Charles_II_of_England'
p262
aS'Charles_Ives'
p263
aS'Charles_Maurice_de_Talleyrand-Perigord'
p264
aS'Charles_Sanders_Peirce'
p265
aS'Charles_Stewart_Parnell'
p266
aS'Charles_V_Holy_Roman_Emperor'
p267
aS'Charles_XII_of_Sweden'
p268
aS'Charlie_Parker'
p269
aS'Chemical_potential'
p270
aS'Cherenkov_radiation'
p271
aS'Cherokee'
p272
aS'Chester_A_Arthur'
p273
aS'Chicago'
p274
aS'Chile'
p275
aS'China'
p276
aS'Chinese_Exclusion_Act'
p277
aS'Chirality_(chemistry)'
p278
aS'Chlorophyll'
p279
aS'Cholera'
p280
aS'Cholesterol'
p281
aS'Christoph_Willibald_Gluck'
p282
aS'Christopher_Marlowe'
p283
aS'Chromatography'
p284
aS'Chronicle_of_a_Death_Foretold'
p285
aS'Cicero'
p286
aS'Circe'
p287
aS'Circumcision'
p288
aS'Citric_acid_cycle'
p289
aS'Claisen_condensation'
p290
aS'Claisen_rearrangement'
p291
aS'Clarinet'
p292
aS'Clarissa'
p293
aS'Claude_Debussy'
p294
aS'Claudio_Monteverdi'
p295
aS'Clayton_Antitrust_Act'
p296
aS'Cleisthenes'
p297
aS'Clemmensen_reduction'
p298
aS'Cloud'
p299
aS'Cobalt'
p300
aS'Cognitive_dissonance'
p301
aS'Collagen'
p302
aS'Colloid'
p303
aS'Colombia'
p304
aS'Colorado'
p305
aS'Comparative_advantage'
p306
aS'Compiler'
p307
aS'Compromise_of_1850'
p308
aS'Concordat_of_Worms'
p309
aS'Congress_of_Berlin'
p310
aS'Congress_of_Vienna'
p311
aS'Consciousness'
p312
aS'Constantin_Brancusi'
p313
aS'Constantine_the_Great'
p314
aS'Convection'
p315
aS'Convergence_(mathematics)'
p316
aS'Cooper_pair'
p317
aS'Copper'
p318
aS'Cormac_McCarthy'
p319
aS'Cosine'
p320
aS'Cosmic_microwave_background'
p321
aS'Cosmic_ray'
p322
aS'Cosmological_constant'
p323
aS'Council_of_Trent'
p324
aS'Crab_Nebula'
p325
aS'Creek_War'
p326
aS'Crete'
p327
aS'Crime_and_Punishment'
p328
aS'Crime'
p329
aS'Critique_of_Pure_Reason'
p330
aS'Crito'
p331
aS'Crown_ether'
p332
aS'Cuba'
p333
aS'Cubism'
p334
aS'Cyclic_adenosine_monophosphate'
p335
aS'Cyclohexane'
p336
aS'Cycloid'
p337
aS'Cymbeline'
p338
aS'Cyprus'
p339
aS'Cyrano_de_Bergerac'
p340
aS'Cyrus_the_Great'
p341
aS'Cystic_fibrosis'
p342
aS'Cytokine'
p343
aS'Czech_Republic'
p344
aS'D_H_Lawrence'
p345
aS'Dahomey'
p346
aS'Dangerous_Liaisons'
p347
aS'Daniel_Defoe'
p348
aS'Daniel_Webster'
p349
aS'Daniel'
p350
aS'Danube'
p351
aS'Darius_I'
p352
aS'Dark_energy'
p353
aS'Das_Kapital'
p354
aS'Das_Lied_von_der_Erde'
p355
aS'Dave_Brubeck'
p356
aS'David_Alfaro_Siqueiros'
p357
aS'David_Mamet'
p358
aS'David_Ricardo'
p359
aS'De_Stijl'
p360
aS'Dead_Souls'
p361
aS'Death_Comes_for_the_Archbishop'
p362
aS'Death_in_Venice'
p363
aS'Death_of_a_Salesman'
p364
aS'Death'
p365
aS'Decembrist_revolt'
p366
aS'Deirdre'
p367
aS'Demand'
p368
aS'Demeter'
p369
aS'Deng_Xiaoping'
p370
aS'Denis_Diderot'
p371
aS'Derek_Walcott'
p372
aS'Desiderius_Erasmus'
p373
aS'Detective'
p374
aS'Determinant'
p375
aS'Dido_and_Aeneas'
p376
aS'Diels-Alder_reaction'
p377
aS'Diene'
p378
aS'Diet_of_Worms'
p379
aS'Diffusion'
p380
aS'Diocletian'
p381
aS'Dionysus'
p382
aS'Disgrace_(novel)'
p383
aS'Dmitri_Shostakovich'
p384
aS'DNA'
p385
aS'Dog'
p386
aS'Domenico_Scarlatti'
p387
aS'Domitian'
p388
aS'Don_Quixote'
p389
aS'Dona_Flor_and_Her_Two_Husbands'
p390
aS'Donatism'
p391
aS'Doppler_effect'
p392
aS'Doris_Lessing'
p393
aS'Dorothea_Lange'
p394
aS'Dorr_Rebellion'
p395
aS'Dover_Beach'
p396
aS'Dragon'
p397
aS'Dream_of_the_Red_Chamber'
p398
aS'Druze'
p399
aS'Du_Fu'
p400
aS'Dylan_Thomas'
p401
aS'E_E_Cummings'
p402
aS'E_M_Forster'
p403
aS'East_Germany'
p404
aS'Echinoderm'
p405
aS'Eclogues'
p406
aS'Edict_of_Nantes'
p407
aS'Edith_Wharton'
p408
aS'Edmund_Husserl'
p409
aS'Edvard_Grieg'
p410
aS'Edvard_Munch'
p411
aS'Edward_Elgar'
p412
aS'Edward_Hopper'
p413
aS'Edward_Sapir'
p414
aS'Edward_the_Confessor'
p415
aS'Edward_VI_of_England'
p416
aS'Edwin_Arlington_Robinson'
p417
aS'Edwin_Hubble'
p418
aS'Eero_Saarinen'
p419
aS'Egypt'
p420
aS'Einstein_on_the_Beach'
p421
aS'El_Greco'
p422
aS'El_Salvador'
p423
aS'Electric_current'
p424
aS'Electric_field'
p425
aS'Electronegativity'
p426
aS'Elegy_Written_in_a_Country_Churchyard'
p427
aS'Elizabeth_I_of_England'
p428
aS'Elliptical_galaxy'
p429
aS'Emile_Durkheim'
p430
aS'Emile_Zola'
p431
aS'Emilio_Aguinaldo'
p432
aS'Emily_Dickinson'
p433
aS'Emma_(novel)'
p434
aS'Endoplasmic_reticulum'
p435
aS'Endymion_(poem)'
p436
aS'Enigma_Variations'
p437
aS'Enrico_Fermi'
p438
aS'Enthalpy'
p439
aS'Entropy'
p440
aS'Enzyme'
p441
aS'Epic_of_Gilgamesh'
p442
aS'Epicurus'
p443
aS'Epoxide'
p444
aS'Equilibrium_constant'
p445
aS'Equus_(play)'
p446
aS'Erich_Maria_Remarque'
p447
aS'Erik_Satie'
p448
aS'Ernest_Hemingway'
p449
aS'Erving_Goffman'
p450
aS'Ester'
p451
aS'Estonia'
p452
aS'Ethan_Frome'
p453
aS'Ethanol'
p454
aS'Ethylene'
p455
aS'Etruscan_civilization'
p456
aS'Euclid'
p457
aS'Eugene_Ionesco'
p458
aS"Eugene_O'Neill"
p459
aS'Euler_characteristic'
p460
aS'Euripides'
p461
aS'Euthyphro'
p462
aS'Evelyn_Waugh'
p463
aS'Externality'
p464
aS'Eye'
p465
aS'Ezra_Pound'
p466
aS'F_Scott_Fitzgerald'
p467
aS'Factorial'
p468
aS'Fashoda_Incident'
p469
aS'Fasting'
p470
aS'Faust'
p471
aS'Federico_Garcia_Lorca'
p472
aS'Felix_Mendelssohn'
p473
aS'Ferdinand_de_Saussure'
p474
aS'Ferromagnetism'
p475
aS'Fidelio'
p476
aS'Field_(mathematics)'
p477
aS'Fionn_mac_Cumhaill'
p478
aS'First_Battle_of_Bull_Run'
p479
aS'First_Crusade'
p480
aS'Flagellum'
p481
aS"Flannery_O'Connor"
p482
aS'Florence'
p483
aS'Florida'
p484
aS'Flowering_plant'
p485
aS'Fluorine'
p486
aS'Flute'
p487
aS'Football_War'
p488
aS"Foucault's_Pendulum"
p489
aS'Founder_effect'
p490
aS'Four_color_theorem'
p491
aS'Fourth_Crusade'
p492
aS'Francis_Bacon_(artist)'
p493
aS'Francis_Bacon'
p494
aS'Francis_Marion'
p495
aS'Francisco_Goya'
p496
aS'Francisco_I_Madero'
p497
aS'Franco-Prussian_War'
p498
aS'Francois_Duvalier'
p499
aS'Francois_Mitterrand'
p500
aS'Frank_Gehry'
p501
aS'Frans_Hals'
p502
aS'Frantz_Fanon'
p503
aS'Franz_Kafka'
p504
aS'Franz_Liszt'
p505
aS'Franz_Schubert'
p506
aS'Frederic_Chopin'
p507
aS'Frederick_Delius'
p508
aS'Frederick_the_Great'
p509
aS'French_language'
p510
aS'Frequency'
p511
aS'Friction'
p512
aS'Friedrich_Nietzsche'
p513
aS'Friedrich_Schiller'
p514
aS'Fronde'
p515
aS'Fugacity'
p516
aS'Fugue'
p517
aS'Fullerene'
p518
aS'Fundamental_attribution_error'
p519
aS'Fungus'
p520
aS'Futurism'
p521
aS'Fyodor_Dostoyevsky'
p522
aS'G_E_Moore'
p523
aS'Gabriela_(telenovela)'
p524
aS'Gaetano_Donizetti'
p525
aS'Gallbladder'
p526
aS'Gamal_Abdel_Nasser'
p527
aS'Gamma-ray_burst'
p528
aS'Gamma'
p529
aS'Ganymede_(moon)'
p530
aS'Gao_Xingjian'
p531
aS'Gargantua_and_Pantagruel'
p532
aS'Gargantua'
p533
aS'Genghis_Khan'
p534
aS'Geoffrey_Chaucer'
p535
aS'Georg_Simmel'
p536
aS'Georg_Wilhelm_Friedrich_Hegel'
p537
aS'George_Berkeley'
p538
aS'George_Bernard_Shaw'
p539
aS'George_Chapman'
p540
aS'George_Eliot'
p541
aS'George_Frideric_Handel'
p542
aS'George_Gershwin'
p543
aS'George_III_of_the_United_Kingdom'
p544
aS'George_Meade'
p545
aS'George_Meredith'
p546
aS'George_Orwell'
p547
aS'George_Washington'
p548
aS'Georges_Bizet'
p549
aS'Gerard_Manley_Hopkins'
p550
aS'Gerhart_Hauptmann'
p551
aS'Gertrude_Stein'
p552
aS'Gestalt_psychology'
p553
aS'Getulio_Vargas'
p554
aS'Ghana'
p555
aS'Giacomo_Puccini'
p556
aS'Giambattista_Vico'
p557
aS'Gian_Lorenzo_Bernini'
p558
aS'Gibraltar'
p559
aS'Gideon'
p560
aS'Gilbert_N_Lewis'
p561
aS'Gilbert_Ryle'
p562
aS'Giorgio_de_Chirico'
p563
aS'Giovanni_Pierluigi_da_Palestrina'
p564
aS'Girolamo_Savonarola'
p565
aS'Gitanjali'
p566
aS'Giuseppe_Garibaldi'
p567
aS'Giuseppe_Mazzini'
p568
aS'Giuseppe_Verdi'
p569
aS'Glacier'
p570
aS'Glass'
p571
aS'Glengarry_Glen_Ross'
p572
aS'Gluon'
p573
aS'Glycine'
p574
aS'Gobi_Desert'
p575
aS'Gold'
p576
aS'Goldberg_Variations'
p577
aS'Golden_Horde'
p578
aS'Gospel_of_Luke'
p579
aS'Gottlob_Frege'
p580
aS'Graham_Greene'
p581
aS'Great_Expectations'
p582
aS'Great_Fire_of_London'
p583
aS'Great_Society'
p584
aS'Greece'
p585
aS'Green_fluorescent_protein'
p586
aS'Greenland'
p587
aS"Gresham's_law"
p588
aS'Gross_domestic_product'
p589
aS'Group_(mathematics)'
p590
aS'Guatemala'
p591
aS'Guelphs_and_Ghibellines'
p592
aS'Guernica_(painting)'
p593
aS"Gulliver's_Travels"
p594
aS'Gunnar_Myrdal'
p595
aS'Gunpowder_Plot'
p596
aS'Gupta_Empire'
p597
aS'Guru_Nanak'
p598
aS'Gustav_Mahler'
p599
aS'Gustave_Courbet'
p600
aS'Gustave_Flaubert'
p601
aS'Gustavus_Adolphus_of_Sweden'
p602
aS'Guy_de_Maupassant'
p603
aS'Gwendolyn_Brooks'
p604
aS'Haber_process'
p605
aS'Hades'
p606
aS'Haitian_Vodou'
p607
aS'Hajj'
p608
aS'Hall_effect'
p609
aS'Halogen'
p610
aS'Hamiltonian_(quantum_mechanics)'
p611
aS'Hamlet'
p612
aS'Hard_Times'
p613
aS'Harmonic_oscillator'
p614
aS'Harold_en_Italie'
p615
aS'Harold_Godwinson'
p616
aS'Harold_Pinter'
p617
aS'Harriet_Beecher_Stowe'
p618
aS'Harry_S_Truman'
p619
aS'Hartford_Convention'
p620
aS'Hathor'
p621
aS'Hawaii'
p622
aS'Haymarket_affair'
p623
aS'Heap_(data_structure)'
p624
aS'Heart_of_Darkness'
p625
aS'Heartbreak_House'
p626
aS'Heat_capacity'
p627
aS'Hedda_Gabler'
p628
aS'Heimdallr'
p629
aS'Heinrich_Boll'
p630
aS'Heinrich_Heine'
p631
aS'Heinrich_von_Kleist'
p632
aS'Helium'
p633
aS'Helmholtz_free_energy'
p634
aS'Hemoglobin'
p635
aS'Henri_Matisse'
p636
aS'Henri_Rousseau'
p637
aS'Henry_Cabot_Lodge_Jr'
p638
aS'Henry_Clay'
p639
aS'Henry_Fielding'
p640
aS'Henry_Fuseli'
p641
aS'Henry_I_of_England'
p642
aS'Henry_II_of_England'
p643
aS'Henry_III_of_France'
p644
aS'Henry_IV_of_France'
p645
aS'Henry_James'
p646
aS'Henry_L_Stimson'
p647
aS'Henry_Miller'
p648
aS'Henry_Moore'
p649
aS'Henry_Purcell'
p650
aS'Henry_the_Navigator'
p651
aS'Henry_VIII_of_England'
p652
aS'Henry_Wadsworth_Longfellow'
p653
aS"Henry's_law"
p654
aS'Hera'
p655
aS'Heracles'
p656
aS'Herbert_Spencer'
p657
aS'Hermann_Hesse'
p658
aS'Hermes'
p659
aS'Hesiod'
p660
aS'Higgs_boson'
p661
aS'Hippocampus'
p662
aS'Histone'
p663
aS'Hittites'
p664
aS'HIV'
p665
aS'Hofmann_elimination'
p666
aS'Hokkaido'
p667
aS'Holden_Caulfield'
p668
aS'Holi'
p669
aS'Homestead_Strike'
p670
aS'Honduras'
p671
aS"Hooke's_law"
p672
aS'Horace_Greeley'
p673
aS'Horace'
p674
aS'Horse'
p675
aS'Horus'
p676
aS'Howards_End'
p677
aS'Howl'
p678
aS'Huey_Long'
p679
aS'Hugh_Capet'
p680
aS'Huitzilopochtli'
p681
aS'Huldrych_Zwingli'
p682
aS'Humbert_Humbert'
p683
aS'Hungary'
p684
aS'Hydrazine'
p685
aS'Hydrogenation'
p686
aS'Hypnos'
p687
aS'Hysteresis'
p688
aS'I_and_the_Village'
p689
aS'I_and_Thou'
p690
aS'I_Sing_the_Body_Electric_(poem)'
p691
aS'I_M_Pei'
p692
aS'Iago'
p693
aS'Idaho'
p694
aS'Ideal_gas_law'
p695
aS'Il_Penseroso'
p696
aS'Il_trovatore'
p697
aS'Illinois'
p698
aS'Immanuel_Kant'
p699
aS'Inca_Empire'
p700
aS'India'
p701
aS'Indian_Rebellion_of_1857'
p702
aS'Indonesia'
p703
aS'Indra'
p704
aS'Infrared_spectroscopy'
p705
aS'Inner_core'
p706
aS'Integer'
p707
aS'Interferometry'
p708
aS'Interferon'
p709
aS'Intron'
p710
aS'Invisible_Man'
p711
aS'Ireland'
p712
aS'Iron'
p713
aS'Isaac_Newton'
p714
aS'Isabel_Allende'
p715
aS'Isabella_I_of_Castile'
p716
aS'Isenheim_Altarpiece'
p717
aS'Ishtar'
p718
aS'Ising_model'
p719
aS'Isomer'
p720
aS'Israel'
p721
aS'Italo_Calvino'
p722
aS'Italy'
p723
aS'Ivan_the_Terrible'
p724
aS'Ivan_Turgenev'
p725
aS'Ivanhoe'
p726
aS'Ixion'
p727
aS'J_D_Salinger'
p728
aS'Jackson_Pollock'
p729
aS'Jacquerie'
p730
aS'Jacques_Derrida'
p731
aS'Jacques_Offenbach'
p732
aS'Jahn-Teller_effect'
p733
aS'Jainism'
p734
aS'James_Abbott_McNeill_Whistler'
p735
aS'James_Baldwin'
p736
aS'James_Clerk_Maxwell'
p737
aS'James_Fenimore_Cooper'
p738
aS'James_G_Blaine'
p739
aS'James_George_Frazer'
p740
aS'James_Joyce'
p741
aS'James_Monroe'
p742
aS'James_VI_and_I'
p743
aS'Jamestown_Virginia'
p744
aS'Jane_Eyre'
p745
aS'Jansenism'
p746
aS'Japan'
p747
aS'Jason'
p748
aS'Java'
p749
aS'Jawaharlal_Nehru'
p750
aS'Jean_Piaget'
p751
aS'Jean_Racine'
p752
aS'Jean_Sibelius'
p753
aS'Jean-Jacques_Rousseau'
p754
aS'Jean-Paul_Sartre'
p755
aS'Jean-Philippe_Rameau'
p756
aS'Jefferson_Davis'
p757
aS"Jehovah's_Witnesses"
p758
aS'Jeremy_Bentham'
p759
aS'Jesus'
p760
aS'Joan_Miro'
p761
aS'Job_(biblical_figure)'
p762
aS'Johann_Gottlieb_Fichte'
p763
aS'Johann_Sebastian_Bach'
p764
aS'Johannes_Brahms'
p765
aS'Johannes_Kepler'
p766
aS'Johannes_Vermeer'
p767
aS'John_A_Macdonald'
p768
aS'John_Adams_(composer)'
p769
aS'John_Adams'
p770
aS'John_B_Watson'
p771
aS'John_Brown_(abolitionist)'
p772
aS'John_Calvin'
p773
aS'John_Coltrane'
p774
aS'John_Constable'
p775
aS'John_Dewey'
p776
aS'John_Dryden'
p777
aS'John_Everett_Millais'
p778
aS'John_Foster_Dulles'
p779
aS'John_Keats'
p780
aS'John_Kenneth_Galbraith'
p781
aS'John_Maynard_Keynes'
p782
aS'John_Millington_Synge'
p783
aS'John_Quincy_Adams'
p784
aS'John_Rawls'
p785
aS'John_Singer_Sargent'
p786
aS'John_Steinbeck'
p787
aS'John_Stuart_Mill'
p788
aS'John_Tyler'
p789
aS'John_Updike'
p790
aS'John_von_Neumann'
p791
aS'John_King_of_England'
p792
aS'Jonah'
p793
aS'Jonathan_Swift'
p794
aS'Jorge_Amado'
p795
aS'Jorge_Luis_Borges'
p796
aS'Jose_Clemente_Orozco'
p797
aS'Jose_Marti'
p798
aS'Joseph_Conrad'
p799
aS'Joseph_Haydn'
p800
aS'Joseph_II_Holy_Roman_Emperor'
p801
aS'Joseph_McCarthy'
p802
aS'Josephson_effect'
p803
aS'Josiah_Royce'
p804
aS'Josiah_Willard_Gibbs'
p805
aS'Josip_Broz_Tito'
p806
aS'Jules_Verne'
p807
aS'Julian_(emperor)'
p808
aS'Julio_Cortazar'
p809
aS'Julius_Nyerere'
p810
aS"July's_People"
p811
aS'Jurassic'
p812
aS'Jurgen_Habermas'
p813
aS'Justinian_I'
p814
aS'Kamakura_shogunate'
p815
aS'Kansas'
p816
aS'Karl_Jaspers'
p817
aS'Karl_Marx'
p818
aS'Karl_Popper'
p819
aS'Kate_Chopin'
p820
aS'Katherine_Anne_Porter'
p821
aS'Katy_Perry'
p822
aS'Kazimir_Malevich'
p823
aS'Kentucky'
p824
aS'Keratin'
p825
aS'Ketone'
p826
aS'Kinetic_energy'
p827
aS"King_Philip's_War"
p828
aS'Kingsley_Amis'
p829
aS'Knights_of_Labor'
p830
aS'Knowledge'
p831
aS'Krishna'
p832
aS'Kristin_Lavransdatter'
p833
aS'Kubla_Khan'
p834
aS'Kublai_Khan'
p835
aS'Kuiper_belt'
p836
aS'Kurt_Vonnegut'
p837
aS'Kwame_Nkrumah'
p838
aS'La_Belle_Dame_sans_Merci'
p839
aS'La_traviata'
p840
aS"Lady_Windermere's_Fan"
p841
aS'Lagrangian'
p842
aS'Lajos_Kossuth'
p843
aS'Lake_Baikal'
p844
aS'Lake_Chad'
p845
aS'Lake_Ladoga'
p846
aS'Lake_Malawi'
p847
aS'Lake_Nicaragua'
p848
aS'Lake_Tanganyika'
p849
aS'Lake_Victoria'
p850
aS'Lake'
p851
aS'Lakshmi'
p852
aS'Lambda_calculus'
p853
aS'Langston_Hughes'
p854
aS'Laos'
p855
aS'Laplacian_matrix'
p856
aS'Laser'
p857
aS'Lattice_energy'
p858
aS'Laurence_Sterne'
p859
aS'Lawrence_Kohlberg'
p860
aS'Leonard_Bernstein'
p861
aS'Leonid_Brezhnev'
p862
aS'Leos_Janacek'
p863
aS"Les_Demoiselles_d'Avignon"
p864
aS'Lev_Landau'
p865
aS'Leviathan_(book)'
p866
aS'Leviathan'
p867
aS'Lewis_Cass'
p868
aS'Lewis_H_Morgan'
p869
aS'Lewis_Mumford'
p870
aS'Lichen'
p871
aS'Lines_written_a_few_miles_above_Tintern_Abbey'
p872
aS"Liouville's_theorem_(complex_analysis)"
p873
aS'Liquid_crystal'
p874
aS'List_of_fictional_dogs'
p875
aS'Liver'
p876
aS'Lohengrin_(opera)'
p877
aS'Loki'
p878
aS'Lolita'
p879
aS'London'
p880
aS'Looking_Backward'
p881
aS'Lord_of_the_Flies'
p882
aS'Lorenzo_Ghiberti'
p883
aS'Louis_Armstrong'
p884
aS'Louis_Riel'
p885
aS'Louis_Sullivan'
p886
aS'Louis_XIV_of_France'
p887
aS'Louis_XV_of_France'
p888
aS'Lucius_Tarquinius_Superbus'
p889
aS'Ludwig_van_Beethoven'
p890
aS'Ludwig_Wittgenstein'
p891
aS'Luigi_Pirandello'
p892
aS'Luminosity'
p893
aS'Lyndon_B_Johnson'
p894
aS'Lyrical_Ballads'
p895
aS'Lysistrata'
p896
aS'Lysosome'
p897
aS'Madagascar'
p898
aS'Madama_Butterfly'
p899
aS'Madame_Bovary'
p900
aS'Maggie:_A_Girl_of_the_Streets'
p901
aS'Magna_Carta'
p902
aS'Magnetic_field'
p903
aS'Magnetic_monopole'
p904
aS'Mahavira'
p905
aS'Main_Street_(novel)'
p906
aS'Maine'
p907
aS'Malaysia'
p908
aS'Mamluk'
p909
aS'Manichaeism'
p910
aS'Manitoba'
p911
aS'Mantle_(geology)'
p912
aS'Manuel_de_Falla'
p913
aS'Maori_people'
p914
aS'Mapp_v_Ohio'
p915
aS'Marbury_v_Madison'
p916
aS'Marcel_Mauss'
p917
aS'Marcus_Licinius_Crassus'
p918
aS'Marduk'
p919
aS'Mario_Vargas_Llosa'
p920
aS'Mark_Antony'
p921
aS"Markovnikov's_rule"
p922
aS'Mars_(mythology)'
p923
aS'Martial'
p924
aS'Martin_Heidegger'
p925
aS'Mass_spectrometry'
p926
aS'Mass'
p927
aS'Matthew_Arnold'
p928
aS'Maurice_Ravel'
p929
aS'Maurya_Empire'
p930
aS'Max_Weber'
p931
aS'Max_Wertheimer'
p932
aS'Maya_civilization'
p933
aS'McTeague'
p934
aS'Medea'
p935
aS'Medusa'
p936
aS'Meiji_Restoration'
p937
aS'Meiosis'
p938
aS'Meissner_effect'
p939
aS'Mekong'
p940
aS'Melampus'
p941
aS'Melbourne'
p942
aS'Memory'
p943
aS'Mercury_13'
p944
aS'Messiah_(Handel)'
p945
aS'Methodism'
p946
aS'Mexico'
p947
aS'Mica'
p948
aS'Micelle'
p949
aS'Michael_reaction'
p950
aS'Michel_Foucault'
p951
aS'Michelangelo'
p952
aS'Microtubule'
p953
aS'Middlemarch'
p954
aS'Miguel_Angel_Asturias'
p955
aS'Mikhail_Lermontov'
p956
aS'Milan_Kundera'
p957
aS'Miles_Davis'
p958
aS'Ming_Dynasty'
p959
aS'Minos'
p960
aS'Miss_Julie'
p961
aS'Missouri_River'
p962
aS'Mithras'
p963
aS'Mobutu_Sese_Seko'
p964
aS'Modest_Mussorgsky'
p965
aS'Molecular_orbital'
p966
aS'Mollusca'
p967
aS'Moment_of_inertia'
p968
aS'Momentum'
p969
aS'Mongolia'
p970
aS'Mossbauer_effect'
p971
aS'Mozambique'
p972
aS'Mrs_Dalloway'
p973
aS'Much_Ado_About_Nothing'
p974
aS'Mughal_Empire'
p975
aS'Muhammad_Ali_of_Egypt'
p976
aS'Munich'
p977
aS'Murder_on_the_Orient_Express'
p978
aS'Music_of_Pyotr_Ilyich_Tchaikovsky'
p979
aS'My_Last_Duchess'
p980
aS'Nadine_Gordimer'
p981
aS'Naguib_Mahfouz'
p982
aS'Napoleon'
p983
aS'Nathan_the_Wise'
p984
aS'Nathaniel_Hawthorne'
p985
aS'Nation_of_Islam'
p986
aS'Nausea_(novel)'
p987
aS'Neptune'
p988
aS'Nernst_equation'
p989
aS'Nero'
p990
aS'Nestor_(mythology)'
p991
aS'Netherlands'
p992
aS'Neuron'
p993
aS'Neutron_star'
p994
aS'New_Guinea'
p995
aS'New_Mexico'
p996
aS'New_Orleans'
p997
aS'New_York_City'
p998
aS"Ngugi_wa_Thiong'o"
p999
aS'Niacin'
p1000
aS'Nicaragua'
p1001
aS'Niccolo_Machiavelli'
p1002
aS'Nickel'
p1003
aS'Nicolae_Ceausescu'
p1004
aS'Nicolas_Poussin'
p1005
aS'Nicolas_Sarkozy'
p1006
aS'Niels_Bohr'
p1007
aS'Night_of_the_Long_Knives'
p1008
aS'Nighthawks'
p1009
aS'Nikita_Khrushchev'
p1010
aS'Nikolai_Gogol'
p1011
aS'Nikolai_Rimsky-Korsakov'
p1012
aS'Nitric_acid'
p1013
aS'Nitrile'
p1014
aS'Nitrogen_fixation'
p1015
aS'No_Exit'
p1016
aS'No_Longer_at_Ease'
p1017
aS'Noam_Chomsky'
p1018
aS'Noble_gas'
p1019
aS'Notes_from_Underground'
p1020
aS'Nuclear_fusion'
p1021
aS'Nuclear_magnetic_resonance'
p1022
aS'O_Henry'
p1023
aS'Ode_to_a_Nightingale'
p1024
aS'Odin'
p1025
aS'Oedipus'
p1026
aS'Ohio'
p1027
aS"Ohm's_law"
p1028
aS'Oliver_Cromwell'
p1029
aS'Oliver_Goldsmith'
p1030
aS'Oliver_Wendell_Holmes_Jr'
p1031
aS'Olivine'
p1032
aS'Olmec'
p1033
aS'Olympia_(Manet)'
p1034
aS'On_the_Road'
p1035
aS'One_Hundred_Years_of_Solitude'
p1036
aS'Oort_cloud'
p1037
aS'Open_set'
p1038
aS'Opium_Wars'
p1039
aS'Oresteia#The_Eumenides'
p1040
aS'Orientalism'
p1041
aS'Orinoco'
p1042
aS'Orion_(mythology)'
p1043
aS'Orlando_Furioso'
p1044
aS'Orson_Welles'
p1045
aS'Osiris'
p1046
aS'Ostend_Manifesto'
p1047
aS'Otto_I_Holy_Roman_Emperor'
p1048
aS'Ottoman_Empire'
p1049
aS'Ottorino_Respighi'
p1050
aS'Our_Man_in_Havana'
p1051
aS'Our_Town'
p1052
aS'Outer_core'
p1053
aS'Ovid'
p1054
aS'Oxygen'
p1055
aS'Ozone'
p1056
aS'Ozymandias'
p1057
aS'P53'
p1058
aS'Pablo_Neruda'
p1059
aS'Pablo_Picasso'
p1060
aS'Pagliacci'
p1061
aS'Pakistan'
p1062
aS'Pan_(god)'
p1063
aS"Pan's_Labyrinth"
p1064
aS'Panama'
p1065
aS'Pancreas'
p1066
aS'Panic_of_1837'
p1067
aS'Paraguay'
p1068
aS'Paraguayan_War'
p1069
aS'Paramagnetism'
p1070
aS'Paris_Commune'
p1071
aS'Parthian_Empire'
p1072
aS'Passover'
p1073
aS'Patrice_Lumumba'
p1074
aS'Paul_Cezanne'
p1075
aS'Paul_Hindemith'
p1076
aS'Paul_Klee'
p1077
aS'Pauli_exclusion_principle'
p1078
aS"Peasants'_Revolt"
p1079
aS'Pele_(deity)'
p1080
aS'Pelops'
p1081
aS'Pendulum'
p1082
aS'Pennsylvania'
p1083
aS'Peptidoglycan'
p1084
aS'Pequot_War'
p1085
aS'Persephone'
p1086
aS'Perseus'
p1087
aS'Persian_language'
p1088
aS'Peter_Debye'
p1089
aS'Peter_Paul_Rubens'
p1090
aS'Peter_the_Great'
p1091
aS'Peterloo_Massacre'
p1092
aS'Petrarch'
p1093
aS'Petrushka_(ballet)'
p1094
aS'PH'
p1095
aS'Phagocytosis'
p1096
aS'Phenolphthalein'
p1097
aS'Philip_II_of_Spain'
p1098
aS'Philip_Roth'
p1099
aS'Phillips_curve'
p1100
aS'Phillis_Wheatley'
p1101
aS'Phonon'
p1102
aS'Phosphorus'
p1103
aS'Photoelectric_effect'
p1104
aS'Piano'
p1105
aS'Pierre_Bourdieu'
p1106
aS'Pierre_Corneille'
p1107
aS'Pierre-Auguste_Renoir'
p1108
aS'Piers_Plowman'
p1109
aS'Piet_Mondrian'
p1110
aS'Pieter_Bruegel_the_Elder'
p1111
aS'Pilgrimage_of_Grace'
p1112
aS'Pion'
p1113
aS'Piracy'
p1114
aS'Pituitary_gland'
p1115
aS'Plasma_(physics)'
p1116
aS'Plasmid'
p1117
aS'Plato'
p1118
aS'Plautus'
p1119
aS'Pluto'
p1120
aS'Pol_Pot'
p1121
aS'Poland'
p1122
aS'Polarization_(waves)'
p1123
aS'Polymerase_chain_reaction'
p1124
aS'Polynomial'
p1125
aS'Pompey'
p1126
aS'Pontiac_(person)'
p1127
aS'Pope_Julius_II'
p1128
aS"Portnoy's_Complaint"
p1129
aS'Portrait_of_Madame_X'
p1130
aS'Poseidon'
p1131
aS'Power_(physics)'
p1132
aS'Pragmatism'
p1133
aS'Prague_Spring'
p1134
aS'Prague'
p1135
aS'Pride_and_Prejudice'
p1136
aS'Primavera_(painting)'
p1137
aS'Prime_number'
p1138
aS'Prion'
p1139
aS"Prisoner's_dilemma"
p1140
aS'Prometheus_Bound'
p1141
aS'Prometheus'
p1142
aS'Prophase'
p1143
aS'Pryderi'
p1144
aS'Puerto_Rico'
p1145
aS'Pulsar'
p1146
aS'Punctuated_equilibrium'
p1147
aS'Pygmalion_(play)'
p1148
aS'Pyotr_Ilyich_Tchaikovsky'
p1149
aS'Pythagorean_theorem'
p1150
aS'Python_(programming_language)'
p1151
aS'Quantum_tunnelling'
p1152
aS'Quark'
p1153
aS'Quartz'
p1154
aS'Quasar'
p1155
aS'Quetzalcoatl'
p1156
aS'Quicksort'
p1157
aS'Ra'
p1158
aS'Rabbit'
p1159
aS'Rabindranath_Tagore'
p1160
aS'Radical_(chemistry)'
p1161
aS'Rainer_Ludwig_Claisen'
p1162
aS'Rainer_Maria_Rilke'
p1163
aS'Raman_scattering'
p1164
aS'Ramesses_II'
p1165
aS'Raphael'
p1166
aS'Rastafari_movement'
p1167
aS'Ray_Bradbury'
p1168
aS'Recursion'
p1169
aS'Red_blood_cell'
p1170
aS'Red_Queen_hypothesis'
p1171
aS'Red_Sea'
p1172
aS'Reduction_(chemistry)'
p1173
aS'Reflection_(physics)'
p1174
aS'Refractive_index'
p1175
aS'Rene_Descartes'
p1176
aS'Resonance'
p1177
aS'Retina'
p1178
aS'Ribosome'
p1179
aS'Ribozyme'
p1180
aS'Richard_II_(play)'
p1181
aS'Richard_Nixon'
p1182
aS'Richard_Wright_(author)'
p1183
aS'Riemann_zeta_function'
p1184
aS'Rigoletto'
p1185
aS'Rio_de_Janeiro'
p1186
aS'Rio_de_la_Plata'
p1187
aS'River'
p1188
aS'Rob_Roy_(novel)'
p1189
aS'Robert_Burns'
p1190
aS'Robert_E_Lee'
p1191
aS'Robert_Frost'
p1192
aS'Robert_K_Merton'
p1193
aS'Robert_Peel'
p1194
aS'Rococo'
p1195
aS'Roger_Bacon'
p1196
aS'Roland_Barthes'
p1197
aS'Romance_of_the_Three_Kingdoms'
p1198
aS'Romania'
p1199
aS'Rome'
p1200
aS'Romulus_and_Remus'
p1201
aS'Ronald_Coase'
p1202
aS'Rosh_Hashanah'
p1203
aS'Rubaiyat_of_Omar_Khayyam'
p1204
aS'Ruben_Dario'
p1205
aS'Rudyard_Kipling'
p1206
aS'Russia'
p1207
aS'Ruth_Benedict'
p1208
aS'Rutherford_B_Hayes'
p1209
aS'Rwandan_Genocide'
p1210
aS'Ryunosuke_Akutagawa'
p1211
aS'Saint_Petersburg'
p1212
aS'Saki'
p1213
aS'Saladin'
p1214
aS'Salvador_Allende'
p1215
aS'Samson'
p1216
aS'Samuel_Beckett'
p1217
aS'Samuel_J_Tilden'
p1218
aS'Samuel_Johnson'
p1219
aS'Samuel_Taylor_Coleridge'
p1220
aS'Samuel'
p1221
aS'San_Francisco'
p1222
aS'Sandro_Botticelli'
p1223
aS'Santiago'
p1224
aS'Sargon_of_Akkad'
p1225
aS'Saul_Bellow'
p1226
aS'Scattering'
p1227
aS'Schenck_v_United_States'
p1228
aS'Scopes_Trial'
p1229
aS'Scotland'
p1230
aS'Scott_Joplin'
p1231
aS'Scylla'
p1232
aS'Seafloor_spreading'
p1233
aS'Seagram_Building'
p1234
aS'Seattle'
p1235
aS'Second_Boer_War'
p1236
aS'Second_law_of_thermodynamics'
p1237
aS'Selim_I'
p1238
aS'Semiconductor'
p1239
aS'Seneca_Falls_Convention'
p1240
aS'Senegal'
p1241
aS'Sergei_Prokofiev'
p1242
aS'Sergei_Rachmaninoff'
p1243
aS'Serotonin'
p1244
aS'Set_(mythology)'
p1245
aS'Seychelles'
p1246
aS'Shavuot'
p1247
aS'She_Stoops_to_Conquer'
p1248
aS'Sherman_Antitrust_Act'
p1249
aS'Shiva'
p1250
aS'Sidney_Lanier'
p1251
aS'Siegfried_(opera)'
p1252
aS'Sigmund_Freud'
p1253
aS'Sigrid_Undset'
p1254
aS'Sikhism'
p1255
aS'Silas_Marner'
p1256
aS'Silent_Cry'
p1257
aS'Silurian'
p1258
aS'Silvio_Berlusconi'
p1259
aS'Simon_Bolivar'
p1260
aS'Simone_de_Beauvoir'
p1261
aS'Siren_(mythology)'
p1262
aS'Sirius'
p1263
aS'Sister_Carrie'
p1264
aS'Sistine_Chapel'
p1265
aS'Sisyphus'
p1266
aS'Snake_River'
p1267
aS'Snake'
p1268
aS'Snow_(Pamuk_novel)'
p1269
aS'Socialist_Republic_of_Chile'
p1270
aS'Solar_wind'
p1271
aS'Solubility'
p1272
aS'Song_Dynasty'
p1273
aS'Sons_and_Lovers'
p1274
aS'Sophocles'
p1275
aS'South_Korea'
p1276
aS'Spain'
p1277
aS'Spanish_Civil_War'
p1278
aS'Sparta'
p1279
aS'Special_relativity'
p1280
aS'Speciation'
p1281
aS'Speed_of_sound'
p1282
aS'Spider'
p1283
aS'Sponge'
p1284
aS'Spoon_River_Anthology'
p1285
aS'Sri_Lanka'
p1286
aS'Stanford_prison_experiment'
p1287
aS'Stanley_Milgram'
p1288
aS'Stark_effect'
p1289
aS'State_of_Franklin'
p1290
aS'Stendhal'
p1291
aS'Stephen_A_Douglas'
p1292
aS'Stephen_Crane'
p1293
aS'Steppenwolf_(novel)'
p1294
aS'Stoicism'
p1295
aS'Stomach'
p1296
aS'Stratosphere'
p1297
aS'String_quartet'
p1298
aS'Suicide_(book)'
p1299
aS'Sula_(novel)'
p1300
aS'Suleiman_the_Magnificent'
p1301
aS'Sulfur'
p1302
aS'Sulfuric_acid'
p1303
aS'Sultan_Ahmed_Mosque'
p1304
aS'Sun'
p1305
aS'Sunspot'
p1306
aS'Superconductivity'
p1307
aS'Superfluidity'
p1308
aS'Supernova'
p1309
aS'Surface_tension'
p1310
aS'Surfactant'
p1311
aS'Sweden'
p1312
aS'Switzerland'
p1313
aS'Sword'
p1314
aS'Sylvia_Plath'
p1315
aS'Symphony_No_1_(Mahler)'
p1316
aS'Symphony_No_8_(Mahler)'
p1317
aS'Symphony_No_9_(Beethoven)'
p1318
aS'Synchrotron_radiation'
p1319
aS'Syracuse_Sicily'
p1320
aS'Syria'
p1321
aS'T_S_Eliot'
p1322
aS'Taiping_Rebellion'
p1323
aS'Taiwan'
p1324
aS'Talcott_Parsons'
p1325
aS'Taliesin'
p1326
aS'Tantalus'
p1327
aS'Taoism'
p1328
aS'Tartuffe_(Mechem)'
p1329
aS'Tartuffe'
p1330
aS'Tax'
p1331
aS'Tay-Sachs_disease'
p1332
aS'Tecumseh'
p1333
aS'Tennessee'
p1334
aS"Tess_of_the_d'Urbervilles"
p1335
aS'Tezcatlipoca'
p1336
aS'Thailand'
p1337
aS'Thanatopsis'
p1338
aS'The_Affluent_Society'
p1339
aS'The_Alchemist_(play)'
p1340
aS'The_Ambassadors_(Holbein)'
p1341
aS'The_Anatomy_Lesson_of_Dr_Nicolaes_Tulp'
p1342
aS'The_Awakening_(Chopin_novel)'
p1343
aS'The_Barber_of_Seville'
p1344
aS'The_Bluest_Eye'
p1345
aS'The_Bostonians'
p1346
aS'The_Bronze_Horseman_(poem)'
p1347
aS'The_Brothers_Karamazov'
p1348
aS'The_Burial_of_the_Count_of_Orgaz'
p1349
aS'The_Calling_of_St_Matthew_(Caravaggio)'
p1350
aS'The_Canterbury_Tales'
p1351
aS'The_Carnival_of_the_Animals'
p1352
aS'The_Castle_(novel)'
p1353
aS'The_Charterhouse_of_Parma'
p1354
aS'The_Cherry_Orchard'
p1355
aS'The_Color_Purple'
p1356
aS'The_Communist_Manifesto'
p1357
aS'The_Consolation_of_Philosophy'
p1358
aS'The_Creation_(Haydn)'
p1359
aS'The_Crying_of_Lot_49'
p1360
aS'The_Dagda'
p1361
aS'The_Death_of_Socrates'
p1362
aS'The_Death_of_the_Hired_Man'
p1363
aS'The_Duchess_of_Malfi'
p1364
aS'The_Egoist_(novel)'
p1365
aS'The_Frogs'
p1366
aS'The_Garden_of_Earthly_Delights'
p1367
aS'The_Gates_of_Hell'
p1368
aS'The_Gay_Science'
p1369
aS'The_Gift_(book)'
p1370
aS'The_Glass_Bead_Game'
p1371
aS'The_Glass_Menagerie'
p1372
aS'The_Golden_Bough'
p1373
aS'The_Good_Soldier'
p1374
aS'The_Gross_Clinic'
p1375
aS'The_Guide_for_the_Perplexed'
p1376
aS"The_Handmaid's_Tale"
p1377
aS'The_Hay_Wain'
p1378
aS'The_Hollow_Men'
p1379
aS'The_House_of_Bernarda_Alba'
p1380
aS'The_House_of_Mirth'
p1381
aS'The_Hunchback_of_Notre-Dame'
p1382
aS'The_Iceman_Cometh'
p1383
aS'The_Importance_of_Being_Earnest'
p1384
aS'The_Jungle'
p1385
aS'The_Kiss_(Klimt)'
p1386
aS'The_Knights'
p1387
aS'The_Last_of_the_Mohicans'
p1388
aS'The_Last_Supper_(Leonardo_da_Vinci)'
p1389
aS'The_Leopard'
p1390
aS'The_Little_Foxes'
p1391
aS'The_Lottery'
p1392
aS'The_Love_Song_of_J_Alfred_Prufrock'
p1393
aS'The_Magic_Flute'
p1394
aS'The_Magic_Mountain'
p1395
aS'The_Marriage_of_Figaro'
p1396
aS'The_Master_and_Margarita'
p1397
aS'The_Master_Builder'
p1398
aS'The_Merry_Wives_of_Windsor'
p1399
aS'The_Metamorphosis'
p1400
aS'The_Miser'
p1401
aS'The_Necklace'
p1402
aS'The_Night_Watch'
p1403
aS'The_Octopus:_A_Story_of_California'
p1404
aS'The_Open_Society_and_Its_Enemies'
p1405
aS'The_Overcoat'
p1406
aS"The_Painter's_Studio"
p1407
aS'The_Phenomenology_of_Spirit'
p1408
aS'The_Picture_of_Dorian_Gray'
p1409
aS'The_Pillow_Book'
p1410
aS'The_Plague'
p1411
aS'The_Planets'
p1412
aS'The_Playboy_of_the_Western_World'
p1413
aS'The_Portrait_of_a_Lady'
p1414
aS'The_Power_and_the_Glory'
p1415
aS'The_Presentation_of_Self_in_Everyday_Life'
p1416
aS'The_Prince'
p1417
aS'The_Protestant_Ethic_and_the_Spirit_of_Capitalism'
p1418
aS'The_Raft_of_the_Medusa'
p1419
aS'The_Rape_of_the_Lock'
p1420
aS'The_Rape_of_the_Sabine_Women'
p1421
aS'The_Red_and_the_Black'
p1422
aS'The_Republic_(Plato)'
p1423
aS'The_Return_of_the_Native'
p1424
aS'The_Rise_of_Silas_Lapham'
p1425
aS'The_Rite_of_Spring'
p1426
aS'The_Seventh_Seal'
p1427
aS'The_Sickness_Unto_Death'
p1428
aS'The_Sorrows_of_Young_Werther'
p1429
aS'The_Starry_Night'
p1430
aS'The_Stranger_(novel)'
p1431
aS'The_Structure_of_Scientific_Revolutions'
p1432
aS'The_Sun_Also_Rises'
p1433
aS'The_Swing_(painting)'
p1434
aS'The_Tempest'
p1435
aS'The_Three_Musketeers'
p1436
aS'The_Tin_Drum'
p1437
aS'The_Trial'
p1438
aS'The_Tribute_Money_(Masaccio)'
p1439
aS'The_Turn_of_the_Screw'
p1440
aS'The_Waste_Land'
p1441
aS'Their_Eyes_Were_Watching_God'
p1442
aS'Thelonious_Monk'
p1443
aS'Theoderic_the_Great'
p1444
aS'Theodore_Dreiser'
p1445
aS'Theodore_Gericault'
p1446
aS'Theodore_Roethke'
p1447
aS'Theodore_Roosevelt'
p1448
aS'Thermoelectric_effect#Seebeck_effect'
p1449
aS'Theseus'
p1450
aS'Things_Fall_Apart'
p1451
aS'Thiol'
p1452
aS"Thirty_Years'_War"
p1453
aS'Thomas_Eakins'
p1454
aS'Thomas_Pynchon'
p1455
aS'Thomas_Robert_Malthus'
p1456
aS'Thornton_Wilder'
p1457
aS'Thorstein_Veblen'
p1458
aS'Thoth'
p1459
aS'Thyroid'
p1460
aS'Tierra_del_Fuego'
p1461
aS'Timon_of_Athens'
p1462
aS'Timur'
p1463
aS'Tiresias'
p1464
aS'Tirthankara'
p1465
aS"Tisha_B'Av"
p1466
aS'Titan_(moon)'
p1467
aS'Titian'
p1468
aS'Titration'
p1469
aS'Tlaloc'
p1470
aS'To_His_Coy_Mistress'
p1471
aS'To_Kill_a_Mockingbird'
p1472
aS'Tokugawa_Ieyasu'
p1473
aS'Tokugawa_shogunate'
p1474
aS'Tom_Sawyer'
p1475
aS'Tom_Stoppard'
p1476
aS'Toni_Morrison'
p1477
aS'Torquato_Tasso'
p1478
aS'Torus'
p1479
aS'Tosca'
p1480
aS'Tractatus_Logico-Philosophicus'
p1481
aS'Tractatus_Theologico-Politicus'
p1482
aS'Transposable_element'
p1483
aS'Travelling_salesman_problem'
p1484
aS'Treaty_of_Aix-la-Chapelle_(1748)'
p1485
aS'Treaty_of_Brest-Litovsk'
p1486
aS'Treaty_of_Tordesillas'
p1487
aS'Treaty_of_Versailles'
p1488
aS'Tree_(data_structure)'
p1489
aS'Tree_(graph_theory)'
p1490
aS'Tree'
p1491
aS'Triangle_Shirtwaist_Factory_fire'
p1492
aS'Triangle'
p1493
aS'Tryptophan'
p1494
aS'Twenty_Love_Poems_and_a_Song_of_Despair'
p1495
aS'Two_Dogmas_of_Empiricism'
p1496
aS'Tyr'
p1497
aS'Uganda'
p1498
aS'Ukraine'
p1499
aS'Ulysses_(novel)'
p1500
aS'Ulysses_(poem)'
p1501
aS'Umayyad_Caliphate'
p1502
aS'Umberto_Eco'
p1503
aS'Uncertainty_principle'
p1504
aS"Uncle_Tom's_Cabin"
p1505
aS'Unemployment'
p1506
aS'Unfinished_symphony'
p1507
aS'United_States'
p1508
aS'Upanishads'
p1509
aS'Upton_Sinclair'
p1510
aS'Uranium'
p1511
aS'Urea_cycle'
p1512
aS'Urea'
p1513
aS'Utilitarianism'
p1514
aS'V_S_Naipaul'
p1515
aS'Van_Allen_radiation_belt'
p1516
aS'Vapor_pressure'
p1517
aS'Vasopressin'
p1518
aS'Velocity'
p1519
aS'Venice'
p1520
aS'Venus_of_Urbino'
p1521
aS'Venus'
p1522
aS'Verdun'
p1523
aS'Vertigo_(film)'
p1524
aS'Victor_Hugo'
p1525
aS'Vietnam_War'
p1526
aS'Vietnam'
p1527
aS'View_of_Delft'
p1528
aS'Vikram_Seth'
p1529
aS'Vilfredo_Pareto'
p1530
aS'Vincent_van_Gogh'
p1531
aS'Virginia_Woolf'
p1532
aS'Virginia'
p1533
aS'Viscosity'
p1534
aS'Visigoths'
p1535
aS'Vlad_the_Impaler'
p1536
aS'Volpone'
p1537
aS'Voltaire'
p1538
aS'Vorticity'
p1539
aS'Vowel'
p1540
aS'W_B_Yeats'
p1541
aS'W_E_B_Du_Bois'
p1542
aS'Waiting_for_Godot'
p1543
aS'Waiting_for_the_Barbarians'
p1544
aS'Wales'
p1545
aS'Wallace_Stevens'
p1546
aS'Walt_Whitman'
p1547
aS'Walter_Mitty'
p1548
aS'Walter_Scott'
p1549
aS'War_and_Peace'
p1550
aS'War_of_1812'
p1551
aS'War_of_the_Austrian_Succession'
p1552
aS'War_of_the_Polish_Succession'
p1553
aS'War_of_the_Spanish_Succession'
p1554
aS'Wars_of_the_Roses'
p1555
aS'Washington_Crossing_the_Delaware'
p1556
aS'Washington_Irving'
p1557
aS'Wassily_Kandinsky'
p1558
aS'Water_Margin'
p1559
aS'Water_Music_(Handel)'
p1560
aS'Water'
p1561
aS'We_(novel)'
p1562
aS'Weak_interaction'
p1563
aS'Whiskey_Rebellion'
p1564
aS'White_Lotus_Rebellion'
p1565
aS'White_Noise_(novel)'
p1566
aS"Who's_Afraid_of_Virginia_Woolf"
p1567
aS'Wilhelm_Wundt'
p1568
aS'Willa_Cather'
p1569
aS'Willard_Van_Orman_Quine'
p1570
aS'William_Carlos_Williams'
p1571
aS'William_Cullen_Bryant'
p1572
aS'William_Faulkner'
p1573
aS'William_Golding'
p1574
aS'William_Graham_Sumner'
p1575
aS'William_H_Seward'
p1576
aS'William_Jennings_Bryan'
p1577
aS'William_Makepeace_Thackeray'
p1578
aS'William_McKinley'
p1579
aS'William_Shakespeare'
p1580
aS'William_the_Conqueror'
p1581
aS'William_Walton'
p1582
aS'William_Wordsworth'
p1583
aS'Winesburg_Ohio_(novel)'
p1584
aS'Winslow_Homer'
p1585
aS'Winston_Churchill'
p1586
aS'Wole_Soyinka'
p1587
aS'Wolfgang_Amadeus_Mozart'
p1588
aS'Woodrow_Wilson'
p1589
aS'World_War_I'
p1590
aS'Wuthering_Heights'
p1591
aS'X_chromosome'
p1592
aS'X-ray'
p1593
aS'Xylem'
p1594
aS'Yasunari_Kawabata'
p1595
aS'Yellow'
p1596
aS'Ylide'
p1597
aS'Yom_Kippur'
p1598
aS'Yukio_Mishima'
p1599
aS'Zambezi'
p1600
aS'Zen'
p1601
aS'Zeus'
p1602
aS'Zinc'
p1603
aS'Zollverein'
p1604
aS'Zoot_Suit_Riots'
p1605
a.