(dp1
S'346'
p2
(lp3
S'train'
p4
aS'WIKI'
p5
aS'Caroline_affair'
p6
asS'347'
p7
(lp8
S'train'
p9
aS'WIKI'
p10
aS'Carthage'
p11
asS'341'
p12
(lp13
S'train'
p14
aS'WIKI'
p15
aS'Carl_Nielsen'
p16
asS'342'
p17
(lp18
S'train'
p19
aS'WIKI'
p20
aS'Carl_Rogers'
p21
asS'348'
p22
(lp23
S'train'
p24
aS'WIKI'
p25
aS'Cartilage'
p26
asS'349'
p27
(lp28
S'train'
p29
aS'WIKI'
p30
aS'Casimir_effect'
p31
asS'1653'
p32
(lp33
S'train'
p34
aS'WIKI'
p35
aS'Pryderi'
p36
asS'2319'
p37
(lp38
S'train'
p39
aS'WIKI'
p40
aS'Yukio_Mishima'
p41
asS'2316'
p42
(lp43
S'train'
p44
aS'WIKI'
p45
aS'Ylide'
p46
asS'2317'
p47
(lp48
S'train'
p49
aS'WIKI'
p50
aS'Yom_Kippur'
p51
asS'2314'
p52
(lp53
S'train'
p54
aS'WIKI'
p55
aS'Yellow'
p56
asS'2312'
p57
(lp58
S'train'
p59
aS'WIKI'
p60
aS'Yasunari_Kawabata'
p61
asS'2310'
p62
(lp63
S'train'
p64
aS'WIKI'
p65
aS'X-ray'
p66
asS'2311'
p67
(lp68
S'train'
p69
aS'WIKI'
p70
aS'Xylem'
p71
asS'298'
p72
(lp73
S'train'
p74
aS'WIKI'
p75
aS'Botswana'
p76
asS'299'
p77
(lp78
S'train'
p79
aS'WIKI'
p80
aS'Brahma'
p81
asS'296'
p82
(lp83
S'train'
p84
aS'WIKI'
p85
aS'Boston_Massacre'
p86
asS'297'
p87
(lp88
S'train'
p89
aS'WIKI'
p90
aS'Boston'
p91
asS'295'
p92
(lp93
S'train'
p94
aS'WIKI'
p95
aS'Bose-Einstein_condensate'
p96
asS'293'
p97
(lp98
S'train'
p99
aS'WIKI'
p100
aS'Borneo'
p101
asS'290'
p102
(lp103
S'train'
p104
aS'WIKI'
p105
aS'Book_of_Leviticus'
p106
asS'291'
p107
(lp108
S'train'
p109
aS'WIKI'
p110
aS'Book_of_Mormon'
p111
asS'2147'
p112
(lp113
S'train'
p114
aS'WIKI'
p115
aS'Tosca'
p116
asS'272'
p117
(lp118
S'train'
p119
aS'WIKI'
p120
aS'Birefringence'
p121
asS'273'
p122
(lp123
S'train'
p124
aS'WIKI'
p125
aS"Bishops'_Wars"
p126
asS'274'
p127
(lp128
S'train'
p129
aS'WIKI'
p130
aS'Black_Boy'
p131
asS'275'
p132
(lp133
S'train'
p134
aS'WIKI'
p135
aS'Black_hole'
p136
asS'276'
p137
(lp138
S'train'
p139
aS'WIKI'
p140
aS'Black_Sea'
p141
asS'279'
p142
(lp143
S'train'
p144
aS'WIKI'
p145
aS'Blindness_(novel)'
p146
asS'2268'
p147
(lp148
S'train'
p149
aS'WIKI'
p150
aS'Whiskey_Rebellion'
p151
asS'2269'
p152
(lp153
S'train'
p154
aS'WIKI'
p155
aS'White_Lotus_Rebellion'
p156
asS'2262'
p157
(lp158
S'train'
p159
aS'WIKI'
p160
aS'Water'
p161
asS'2260'
p162
(lp163
S'train'
p164
aS'WIKI'
p165
aS'Water_Margin'
p166
asS'2261'
p167
(lp168
S'train'
p169
aS'WIKI'
p170
aS'Water_Music_(Handel)'
p171
asS'2266'
p172
(lp173
S'train'
p174
aS'WIKI'
p175
aS'Weak_interaction'
p176
asS'2265'
p177
(lp178
S'train'
p179
aS'WIKI'
p180
aS'We_(novel)'
p181
asS'2189'
p182
(lp183
S'train'
p184
aS'WIKI'
p185
aS"Uncle_Tom's_Cabin"
p186
asS'109'
p187
(lp188
S'train'
p189
aS'WIKI'
p190
aS'Anatole_France'
p191
asS'102'
p192
(lp193
S'train'
p194
aS'WIKI'
p195
aS'Ammonia'
p196
asS'103'
p197
(lp198
S'train'
p199
aS'WIKI'
p200
aS'An_American_Tragedy'
p201
asS'101'
p202
(lp203
S'train'
p204
aS'WIKI'
p205
aS'Amino_acid'
p206
asS'106'
p207
(lp208
S'train'
p209
aS'WIKI'
p210
aS'Anansi'
p211
asS'104'
p212
(lp213
S'train'
p214
aS'WIKI'
p215
aS'An_Enemy_of_the_People'
p216
asS'105'
p217
(lp218
S'train'
p219
aS'WIKI'
p220
aS'An_Essay_Concerning_Human_Understanding'
p221
asS'2046'
p222
(lp223
S'train'
p224
aS'WIKI'
p225
aS'The_Portrait_of_a_Lady'
p226
asS'2047'
p227
(lp228
S'train'
p229
aS'WIKI'
p230
aS'The_Power_and_the_Glory'
p231
asS'2044'
p232
(lp233
S'train'
p234
aS'WIKI'
p235
aS'The_Planets'
p236
asS'2045'
p237
(lp238
S'train'
p239
aS'WIKI'
p240
aS'The_Playboy_of_the_Western_World'
p241
asS'2042'
p242
(lp243
S'train'
p244
aS'WIKI'
p245
aS'The_Pillow_Book'
p246
asS'2043'
p247
(lp248
S'train'
p249
aS'WIKI'
p250
aS'The_Plague'
p251
asS'2040'
p252
(lp253
S'train'
p254
aS'WIKI'
p255
aS'The_Phenomenology_of_Spirit'
p256
asS'2041'
p257
(lp258
S'train'
p259
aS'WIKI'
p260
aS'The_Picture_of_Dorian_Gray'
p261
asS'2048'
p262
(lp263
S'train'
p264
aS'WIKI'
p265
aS'The_Presentation_of_Self_in_Everyday_Life'
p266
asS'2049'
p267
(lp268
S'train'
p269
aS'WIKI'
p270
aS'The_Prince'
p271
asS'90'
p272
(lp273
S'train'
p274
aS'WIKI'
p275
aS'Alkyne'
p276
asS'92'
p277
(lp278
S'train'
p279
aS'WIKI'
p280
aS'All_Quiet_on_the_Western_Front'
p281
asS'95'
p282
(lp283
S'train'
p284
aS'WIKI'
p285
aS"Alzheimer's_disease"
p286
asS'94'
p287
(lp288
S'train'
p289
aS'WIKI'
p290
aS'Alpha_particle'
p291
asS'97'
p292
(lp293
S'train'
p294
aS'WIKI'
p295
aS'Ambrose_Bierce'
p296
asS'1623'
p297
(lp298
S'train'
p299
aS'WIKI'
p300
aS'Poland'
p301
asS'1622'
p302
(lp303
S'train'
p304
aS'WIKI'
p305
aS'Pol_Pot'
p306
asS'1993'
p307
(lp308
S'train'
p309
aS'WIKI'
p310
aS'The_Good_Soldier'
p311
asS'1992'
p312
(lp313
S'train'
p314
aS'WIKI'
p315
aS'The_Golden_Bough'
p316
asS'1627'
p317
(lp318
S'train'
p319
aS'WIKI'
p320
aS'Polynomial'
p321
asS'1626'
p322
(lp323
S'train'
p324
aS'WIKI'
p325
aS'Polymerase_chain_reaction'
p326
asS'1997'
p327
(lp328
S'train'
p329
aS'WIKI'
p330
aS'The_Gross_Clinic'
p331
asS'1624'
p332
(lp333
S'train'
p334
aS'WIKI'
p335
aS'Polarization_(waves)'
p336
asS'1999'
p337
(lp338
S'train'
p339
aS'WIKI'
p340
aS"The_Handmaid's_Tale"
p341
asS'1998'
p342
(lp343
S'train'
p344
aS'WIKI'
p345
aS'The_Guide_for_the_Perplexed'
p346
asS'1629'
p347
(lp348
S'train'
p349
aS'WIKI'
p350
aS'Pontiac_(person)'
p351
asS'1628'
p352
(lp353
S'train'
p354
aS'WIKI'
p355
aS'Pompey'
p356
asS'555'
p357
(lp358
S'train'
p359
aS'WIKI'
p360
aS'Dog'
p361
asS'557'
p362
(lp363
S'train'
p364
aS'WIKI'
p365
aS'Domitian'
p366
asS'556'
p367
(lp368
S'train'
p369
aS'WIKI'
p370
aS'Domenico_Scarlatti'
p371
asS'553'
p372
(lp373
S'train'
p374
aS'WIKI'
p375
aS'DNA'
p376
asS'552'
p377
(lp378
S'train'
p379
aS'WIKI'
p380
aS'Dmitri_Shostakovich'
p381
asS'1190'
p382
(lp383
S'train'
p384
aS'WIKI'
p385
aS'Kristin_Lavransdatter'
p386
asS'1193'
p387
(lp388
S'train'
p389
aS'WIKI'
p390
aS'Kublai_Khan'
p391
asS'1192'
p392
(lp393
S'train'
p394
aS'WIKI'
p395
aS'Kubla_Khan'
p396
asS'1195'
p397
(lp398
S'train'
p399
aS'WIKI'
p400
aS'Kurt_Vonnegut'
p401
asS'1194'
p402
(lp403
S'train'
p404
aS'WIKI'
p405
aS'Kuiper_belt'
p406
asS'1197'
p407
(lp408
S'train'
p409
aS'WIKI'
p410
aS'La_Belle_Dame_sans_Merci'
p411
asS'1196'
p412
(lp413
S'train'
p414
aS'WIKI'
p415
aS'Kwame_Nkrumah'
p416
asS'1758'
p417
(lp418
S'train'
p419
aS'WIKI'
p420
aS'Salvador_Allende'
p421
asS'1756'
p422
(lp423
S'train'
p424
aS'WIKI'
p425
aS'Saladin'
p426
asS'1755'
p427
(lp428
S'train'
p429
aS'WIKI'
p430
aS'Saki'
p431
asS'1754'
p432
(lp433
S'train'
p434
aS'WIKI'
p435
aS'Saint_Petersburg'
p436
asS'1752'
p437
(lp438
S'train'
p439
aS'WIKI'
p440
aS'Ryunosuke_Akutagawa'
p441
asS'1751'
p442
(lp443
S'train'
p444
aS'WIKI'
p445
aS'Rwandan_Genocide'
p446
asS'1750'
p447
(lp448
S'train'
p449
aS'WIKI'
p450
aS'Rutherford_B_Hayes'
p451
asS'1177'
p452
(lp453
S'train'
p454
aS'WIKI'
p455
aS'Keratin'
p456
asS'1174'
p457
(lp458
S'train'
p459
aS'WIKI'
p460
aS'Kentucky'
p461
asS'1172'
p462
(lp463
S'train'
p464
aS'WIKI'
p465
aS'Kazimir_Malevich'
p466
asS'1171'
p467
(lp468
S'train'
p469
aS'WIKI'
p470
aS'Katy_Perry'
p471
asS'1170'
p472
(lp473
S'train'
p474
aS'WIKI'
p475
aS'Katherine_Anne_Porter'
p476
asS'1178'
p477
(lp478
S'train'
p479
aS'WIKI'
p480
aS'Ketone'
p481
asS'513'
p482
(lp483
S'train'
p484
aS'WIKI'
p485
aS'David_Ricardo'
p486
asS'1285'
p487
(lp488
S'train'
p489
aS'WIKI'
p490
aS'Lysistrata'
p491
asS'1284'
p492
(lp493
S'train'
p494
aS'WIKI'
p495
aS'Lyrical_Ballads'
p496
asS'1287'
p497
(lp498
S'train'
p499
aS'WIKI'
p500
aS'Madagascar'
p501
asS'512'
p502
(lp503
S'train'
p504
aS'WIKI'
p505
aS'David_Mamet'
p506
asS'1280'
p507
(lp508
S'train'
p509
aS'WIKI'
p510
aS'Luminosity'
p511
asS'1283'
p512
(lp513
S'train'
p514
aS'WIKI'
p515
aS'Lyndon_B_Johnson'
p516
asS'1289'
p517
(lp518
S'train'
p519
aS'WIKI'
p520
aS'Madame_Bovary'
p521
asS'1288'
p522
(lp523
S'train'
p524
aS'WIKI'
p525
aS'Madama_Butterfly'
p526
asS'1579'
p527
(lp528
S'train'
p529
aS'WIKI'
p530
aS'Phenolphthalein'
p531
asS'688'
p532
(lp533
S'train'
p534
aS'WIKI'
p535
aS'Field_(mathematics)'
p536
asS'685'
p537
(lp538
S'train'
p539
aS'WIKI'
p540
aS'Ferromagnetism'
p541
asS'1572'
p542
(lp543
S'train'
p544
aS'WIKI'
p545
aS'Peter_the_Great'
p546
asS'687'
p547
(lp548
S'train'
p549
aS'WIKI'
p550
aS'Fidelio'
p551
asS'516'
p552
(lp553
S'train'
p554
aS'WIKI'
p555
aS'De_Stijl'
p556
asS'681'
p557
(lp558
S'train'
p559
aS'WIKI'
p560
aS'Felix_Mendelssohn'
p561
asS'1576'
p562
(lp563
S'train'
p564
aS'WIKI'
p565
aS'PH'
p566
asS'1575'
p567
(lp568
S'train'
p569
aS'WIKI'
p570
aS'Petrushka_(ballet)'
p571
asS'682'
p572
(lp573
S'train'
p574
aS'WIKI'
p575
aS'Ferdinand_de_Saussure'
p576
asS'458'
p577
(lp578
S'train'
p579
aS'WIKI'
p580
aS'Cosine'
p581
asS'1349'
p582
(lp583
S'train'
p584
aS'WIKI'
p585
aS'Medea'
p586
asS'621'
p587
(lp588
S'train'
p589
aS'WIKI'
p590
aS'Emile_Zola'
p591
asS'873'
p592
(lp593
S'train'
p594
aS'WIKI'
p595
aS'Gwendolyn_Brooks'
p596
asS'1222'
p597
(lp598
S'train'
p599
aS'WIKI'
p600
aS'Lawrence_Kohlberg'
p601
asS'624'
p602
(lp603
S'train'
p604
aS'WIKI'
p605
aS'Emma_(novel)'
p606
asS'407'
p607
(lp608
S'train'
p609
aS'WIKI'
p610
aS'Cicero'
p611
asS'406'
p612
(lp613
S'train'
p614
aS'WIKI'
p615
aS'Chronicle_of_a_Death_Foretold'
p616
asS'405'
p617
(lp618
S'train'
p619
aS'WIKI'
p620
aS'Chromatography'
p621
asS'404'
p622
(lp623
S'train'
p624
aS'WIKI'
p625
aS'Christopher_Marlowe'
p626
asS'403'
p627
(lp628
S'train'
p629
aS'WIKI'
p630
aS'Christoph_Willibald_Gluck'
p631
asS'1377'
p632
(lp633
S'train'
p634
aS'WIKI'
p635
aS'Mikhail_Lermontov'
p636
asS'400'
p637
(lp638
S'train'
p639
aS'WIKI'
p640
aS'Cholesterol'
p641
asS'1379'
p642
(lp643
S'train'
p644
aS'WIKI'
p645
aS'Miles_Davis'
p646
asS'1378'
p647
(lp648
S'train'
p649
aS'WIKI'
p650
aS'Milan_Kundera'
p651
asS'409'
p652
(lp653
S'train'
p654
aS'WIKI'
p655
aS'Circumcision'
p656
asS'408'
p657
(lp658
S'train'
p659
aS'WIKI'
p660
aS'Circe'
p661
asS'454'
p662
(lp663
S'train'
p664
aS'WIKI'
p665
aS'Cormac_McCarthy'
p666
asS'378'
p667
(lp668
S'train'
p669
aS'WIKI'
p670
aS'Charles_Maurice_de_Talleyrand-Perigord'
p671
asS'373'
p672
(lp673
S'train'
p674
aS'WIKI'
p675
aS'Charles_Evans_Hughes'
p676
asS'375'
p677
(lp678
S'train'
p679
aS'WIKI'
p680
aS'Charles_II_of_England'
p681
asS'374'
p682
(lp683
S'train'
p684
aS'WIKI'
p685
aS'Charles_I_of_England'
p686
asS'376'
p687
(lp688
S'train'
p689
aS'WIKI'
p690
aS'Charles_Ives'
p691
asS'393'
p692
(lp693
S'train'
p694
aS'WIKI'
p695
aS'Chile'
p696
asS'391'
p697
(lp698
S'train'
p699
aS'WIKI'
p700
aS'Chicago'
p701
asS'397'
p702
(lp703
S'train'
p704
aS'WIKI'
p705
aS'Chirality_(chemistry)'
p706
asS'395'
p707
(lp708
S'train'
p709
aS'WIKI'
p710
aS'Chinese_Exclusion_Act'
p711
asS'394'
p712
(lp713
S'train'
p714
aS'WIKI'
p715
aS'China'
p716
asS'399'
p717
(lp718
S'train'
p719
aS'WIKI'
p720
aS'Cholera'
p721
asS'398'
p722
(lp723
S'train'
p724
aS'WIKI'
p725
aS'Chlorophyll'
p726
asS'2309'
p727
(lp728
S'train'
p729
aS'WIKI'
p730
aS'X_chromosome'
p731
asS'2308'
p732
(lp733
S'train'
p734
aS'WIKI'
p735
aS'Wuthering_Heights'
p736
asS'2301'
p737
(lp738
S'train'
p739
aS'WIKI'
p740
aS'Winston_Churchill'
p741
asS'2300'
p742
(lp743
S'train'
p744
aS'WIKI'
p745
aS'Winslow_Homer'
p746
asS'2305'
p747
(lp748
S'train'
p749
aS'WIKI'
p750
aS'Wolfgang_Amadeus_Mozart'
p751
asS'2304'
p752
(lp753
S'train'
p754
aS'WIKI'
p755
aS'Wole_Soyinka'
p756
asS'2307'
p757
(lp758
S'train'
p759
aS'WIKI'
p760
aS'World_War_I'
p761
asS'2306'
p762
(lp763
S'train'
p764
aS'WIKI'
p765
aS'Woodrow_Wilson'
p766
asS'245'
p767
(lp768
S'train'
p769
aS'WIKI'
p770
aS'Bellerophon'
p771
asS'244'
p772
(lp773
S'train'
p774
aS'WIKI'
p775
aS'Belgium'
p776
asS'247'
p777
(lp778
S'train'
p779
aS'WIKI'
p780
aS'Benedict_Arnold'
p781
asS'246'
p782
(lp783
S'train'
p784
aS'WIKI'
p785
aS'Ben_Jonson'
p786
asS'241'
p787
(lp788
S'train'
p789
aS'WIKI'
p790
aS'Bee'
p791
asS'240'
p792
(lp793
S'train'
p794
aS'WIKI'
p795
aS'Bedrich_Smetana'
p796
asS'243'
p797
(lp798
S'train'
p799
aS'WIKI'
p800
aS'Bela_Bartok'
p801
asS'242'
p802
(lp803
S'train'
p804
aS'WIKI'
p805
aS'Beijing'
p806
asS'248'
p807
(lp808
S'train'
p809
aS'WIKI'
p810
aS'Benito_Cereno'
p811
asS'2275'
p812
(lp813
S'train'
p814
aS'WIKI'
p815
aS'Willa_Cather'
p816
asS'2274'
p817
(lp818
S'train'
p819
aS'WIKI'
p820
aS'Wilhelm_Wundt'
p821
asS'2276'
p822
(lp823
S'train'
p824
aS'WIKI'
p825
aS'Willard_Van_Orman_Quine'
p826
asS'2270'
p827
(lp828
S'train'
p829
aS'WIKI'
p830
aS'White_Noise_(novel)'
p831
asS'2272'
p832
(lp833
S'train'
p834
aS'WIKI'
p835
aS"Who's_Afraid_of_Virginia_Woolf"
p836
asS'2279'
p837
(lp838
S'train'
p839
aS'WIKI'
p840
aS'William_Cullen_Bryant'
p841
asS'2278'
p842
(lp843
S'train'
p844
aS'WIKI'
p845
aS'William_Carlos_Williams'
p846
asS'2198'
p847
(lp848
S'train'
p849
aS'WIKI'
p850
aS'Urea'
p851
asS'178'
p852
(lp853
S'train'
p854
aS'WIKI'
p855
aS'ATP_synthase'
p856
asS'176'
p857
(lp858
S'train'
p859
aS'WIKI'
p860
aS'Athens'
p861
asS'175'
p862
(lp863
S'train'
p864
aS'WIKI'
p865
aS'Athena'
p866
asS'173'
p867
(lp868
S'train'
p869
aS'WIKI'
p870
aS'Atahualpa'
p871
asS'172'
p872
(lp873
S'train'
p874
aS'WIKI'
p875
aS'Atacama_Desert'
p876
asS'171'
p877
(lp878
S'train'
p879
aS'WIKI'
p880
aS'Ashikaga_shogunate'
p881
asS'170'
p882
(lp883
S'train'
p884
aS'WIKI'
p885
aS'Ashanti_Empire'
p886
asS'2051'
p887
(lp888
S'train'
p889
aS'WIKI'
p890
aS'The_Raft_of_the_Medusa'
p891
asS'2050'
p892
(lp893
S'train'
p894
aS'WIKI'
p895
aS'The_Protestant_Ethic_and_the_Spirit_of_Capitalism'
p896
asS'2053'
p897
(lp898
S'train'
p899
aS'WIKI'
p900
aS'The_Rape_of_the_Sabine_Women'
p901
asS'2052'
p902
(lp903
S'train'
p904
aS'WIKI'
p905
aS'The_Rape_of_the_Lock'
p906
asS'2055'
p907
(lp908
S'train'
p909
aS'WIKI'
p910
aS'The_Red_and_the_Black'
p911
asS'2057'
p912
(lp913
S'train'
p914
aS'WIKI'
p915
aS'The_Return_of_the_Native'
p916
asS'1503'
p917
(lp918
S'train'
p919
aS'WIKI'
p920
aS'Orion_(mythology)'
p921
asS'2059'
p922
(lp923
S'train'
p924
aS'WIKI'
p925
aS'The_Rise_of_Silas_Lapham'
p926
asS'1507'
p927
(lp928
S'train'
p929
aS'WIKI'
p930
aS'Osiris'
p931
asS'650'
p932
(lp933
S'train'
p934
aS'WIKI'
p935
aS'Ester'
p936
asS'1505'
p937
(lp938
S'train'
p939
aS'WIKI'
p940
aS'Orson_Welles'
p941
asS'1227'
p942
(lp943
S'train'
p944
aS'WIKI'
p945
aS'Leonid_Brezhnev'
p946
asS'1973'
p947
(lp948
S'train'
p949
aS'WIKI'
p950
aS'The_Crying_of_Lot_49'
p951
asS'1604'
p952
(lp953
S'train'
p954
aS'WIKI'
p955
aS'Piers_Plowman'
p956
asS'1970'
p957
(lp958
S'train'
p959
aS'WIKI'
p960
aS'The_Consolation_of_Philosophy'
p961
asS'1968'
p962
(lp963
S'train'
p964
aS'WIKI'
p965
aS'The_Communist_Manifesto'
p966
asS'1618'
p967
(lp968
S'train'
p969
aS'WIKI'
p970
aS'Pluto'
p971
asS'1964'
p972
(lp973
S'train'
p974
aS'WIKI'
p975
aS'The_Castle_(novel)'
p976
asS'1965'
p977
(lp978
S'train'
p979
aS'WIKI'
p980
aS'The_Charterhouse_of_Parma'
p981
asS'1614'
p982
(lp983
S'train'
p984
aS'WIKI'
p985
aS'Plasmid'
p986
asS'1967'
p987
(lp988
S'train'
p989
aS'WIKI'
p990
aS'The_Color_Purple'
p991
asS'1960'
p992
(lp993
S'train'
p994
aS'WIKI'
p995
aS'The_Burial_of_the_Count_of_Orgaz'
p996
asS'1613'
p997
(lp998
S'train'
p999
aS'WIKI'
p1000
aS'Plasma_(physics)'
p1001
asS'1610'
p1002
(lp1003
S'train'
p1004
aS'WIKI'
p1005
aS'Pion'
p1006
asS'1611'
p1007
(lp1008
S'train'
p1009
aS'WIKI'
p1010
aS'Piracy'
p1011
asS'1768'
p1012
(lp1013
S'train'
p1014
aS'WIKI'
p1015
aS'Sandro_Botticelli'
p1016
asS'1762'
p1017
(lp1018
S'train'
p1019
aS'WIKI'
p1020
aS'Samuel_Beckett'
p1021
asS'1763'
p1022
(lp1023
S'train'
p1024
aS'WIKI'
p1025
aS'Samuel_J_Tilden'
p1026
asS'1760'
p1027
(lp1028
S'train'
p1029
aS'WIKI'
p1030
aS'Samson'
p1031
asS'1766'
p1032
(lp1033
S'train'
p1034
aS'WIKI'
p1035
aS'Samuel'
p1036
asS'1767'
p1037
(lp1038
S'train'
p1039
aS'WIKI'
p1040
aS'San_Francisco'
p1041
asS'1764'
p1042
(lp1043
S'train'
p1044
aS'WIKI'
p1045
aS'Samuel_Johnson'
p1046
asS'1765'
p1047
(lp1048
S'train'
p1049
aS'WIKI'
p1050
aS'Samuel_Taylor_Coleridge'
p1051
asS'1142'
p1052
(lp1053
S'train'
p1054
aS'WIKI'
p1055
aS'Josephson_effect'
p1056
asS'1146'
p1057
(lp1058
S'train'
p1059
aS'WIKI'
p1060
aS'Josiah_Willard_Gibbs'
p1061
asS'1147'
p1062
(lp1063
S'train'
p1064
aS'WIKI'
p1065
aS'Josip_Broz_Tito'
p1066
asS'1145'
p1067
(lp1068
S'train'
p1069
aS'WIKI'
p1070
aS'Josiah_Royce'
p1071
asS'1148'
p1072
(lp1073
S'train'
p1074
aS'WIKI'
p1075
aS'Jules_Verne'
p1076
asS'1149'
p1077
(lp1078
S'train'
p1079
aS'WIKI'
p1080
aS'Julian_(emperor)'
p1081
asS'692'
p1082
(lp1083
S'train'
p1084
aS'WIKI'
p1085
aS'Fionn_mac_Cumhaill'
p1086
asS'1544'
p1087
(lp1088
S'train'
p1089
aS'WIKI'
p1090
aS'Patrice_Lumumba'
p1091
asS'696'
p1092
(lp1093
S'train'
p1094
aS'WIKI'
p1095
aS'Flagellum'
p1096
asS'1543'
p1097
(lp1098
S'train'
p1099
aS'WIKI'
p1100
aS'Passover'
p1101
asS'694'
p1102
(lp1103
S'train'
p1104
aS'WIKI'
p1105
aS'First_Battle_of_Bull_Run'
p1106
asS'1541'
p1107
(lp1108
S'train'
p1109
aS'WIKI'
p1110
aS'Parthian_Empire'
p1111
asS'699'
p1112
(lp1113
S'train'
p1114
aS'WIKI'
p1115
aS'Florence'
p1116
asS'1549'
p1117
(lp1118
S'train'
p1119
aS'WIKI'
p1120
aS'Paul_Hindemith'
p1121
asS'543'
p1122
(lp1123
S'train'
p1124
aS'WIKI'
p1125
aS'Diffusion'
p1126
asS'540'
p1127
(lp1128
S'train'
p1129
aS'WIKI'
p1130
aS'Diene'
p1131
asS'541'
p1132
(lp1133
S'train'
p1134
aS'WIKI'
p1135
aS'Diet_of_Worms'
p1136
asS'547'
p1137
(lp1138
S'train'
p1139
aS'WIKI'
p1140
aS'Dionysus'
p1141
asS'544'
p1142
(lp1143
S'train'
p1144
aS'WIKI'
p1145
aS'Diocletian'
p1146
asS'1781'
p1147
(lp1148
S'train'
p1149
aS'WIKI'
p1150
aS'Scylla'
p1151
asS'549'
p1152
(lp1153
S'train'
p1154
aS'WIKI'
p1155
aS'Disgrace_(novel)'
p1156
asS'760'
p1157
(lp1158
S'train'
p1159
aS'WIKI'
p1160
aS'Gamal_Abdel_Nasser'
p1161
asS'761'
p1162
(lp1163
S'train'
p1164
aS'WIKI'
p1165
aS'Gamma-ray_burst'
p1166
asS'767'
p1167
(lp1168
S'train'
p1169
aS'WIKI'
p1170
aS'Gargantua'
p1171
asS'764'
p1172
(lp1173
S'train'
p1174
aS'WIKI'
p1175
aS'Ganymede_(moon)'
p1176
asS'765'
p1177
(lp1178
S'train'
p1179
aS'WIKI'
p1180
aS'Gao_Xingjian'
p1181
asS'414'
p1182
(lp1183
S'train'
p1184
aS'WIKI'
p1185
aS'Clarinet'
p1186
asS'415'
p1187
(lp1188
S'train'
p1189
aS'WIKI'
p1190
aS'Clarissa'
p1191
asS'416'
p1192
(lp1193
S'train'
p1194
aS'WIKI'
p1195
aS'Claude_Debussy'
p1196
asS'1388'
p1197
(lp1198
S'train'
p1199
aS'WIKI'
p1200
aS'Mobutu_Sese_Seko'
p1201
asS'1389'
p1202
(lp1203
S'train'
p1204
aS'WIKI'
p1205
aS'Modest_Mussorgsky'
p1206
asS'412'
p1207
(lp1208
S'train'
p1209
aS'WIKI'
p1210
aS'Claisen_condensation'
p1211
asS'413'
p1212
(lp1213
S'train'
p1214
aS'WIKI'
p1215
aS'Claisen_rearrangement'
p1216
asS'1384'
p1217
(lp1218
S'train'
p1219
aS'WIKI'
p1220
aS'Miss_Julie'
p1221
asS'1385'
p1222
(lp1223
S'train'
p1224
aS'WIKI'
p1225
aS'Missouri_River'
p1226
asS'1386'
p1227
(lp1228
S'train'
p1229
aS'WIKI'
p1230
aS'Mithras'
p1231
asS'418'
p1232
(lp1233
S'train'
p1234
aS'WIKI'
p1235
aS'Claudio_Monteverdi'
p1236
asS'1381'
p1237
(lp1238
S'train'
p1239
aS'WIKI'
p1240
aS'Ming_Dynasty'
p1241
asS'1382'
p1242
(lp1243
S'train'
p1244
aS'WIKI'
p1245
aS'Minos'
p1246
asS'368'
p1247
(lp1248
S'train'
p1249
aS'WIKI'
p1250
aS'Chandrasekhar_limit'
p1251
asS'369'
p1252
(lp1253
S'train'
p1254
aS'WIKI'
p1255
aS'Charlemagne'
p1256
asS'366'
p1257
(lp1258
S'train'
p1259
aS'WIKI'
p1260
aS'Chaco_War'
p1261
asS'367'
p1262
(lp1263
S'train'
p1264
aS'WIKI'
p1265
aS'Chandragupta_Maurya'
p1266
asS'364'
p1267
(lp1268
S'train'
p1269
aS'WIKI'
p1270
aS'Cerebellum'
p1271
asS'365'
p1272
(lp1273
S'train'
p1274
aS'WIKI'
p1275
aS'Cesar_Franck'
p1276
asS'362'
p1277
(lp1278
S'train'
p1279
aS'WIKI'
p1280
aS'Central_limit_theorem'
p1281
asS'363'
p1282
(lp1283
S'train'
p1284
aS'WIKI'
p1285
aS'Cepheid_variable'
p1286
asS'360'
p1287
(lp1288
S'train'
p1289
aS'WIKI'
p1290
aS'Cello'
p1291
asS'380'
p1292
(lp1293
S'train'
p1294
aS'WIKI'
p1295
aS'Charles_Sanders_Peirce'
p1296
asS'381'
p1297
(lp1298
S'train'
p1299
aS'WIKI'
p1300
aS'Charles_Stewart_Parnell'
p1301
asS'382'
p1302
(lp1303
S'train'
p1304
aS'WIKI'
p1305
aS'Charles_V_Holy_Roman_Emperor'
p1306
asS'383'
p1307
(lp1308
S'train'
p1309
aS'WIKI'
p1310
aS'Charles_XII_of_Sweden'
p1311
asS'384'
p1312
(lp1313
S'train'
p1314
aS'WIKI'
p1315
aS'Charlie_Parker'
p1316
asS'386'
p1317
(lp1318
S'train'
p1319
aS'WIKI'
p1320
aS'Chemical_potential'
p1321
asS'387'
p1322
(lp1323
S'train'
p1324
aS'WIKI'
p1325
aS'Cherenkov_radiation'
p1326
asS'388'
p1327
(lp1328
S'train'
p1329
aS'WIKI'
p1330
aS'Cherokee'
p1331
asS'389'
p1332
(lp1333
S'train'
p1334
aS'WIKI'
p1335
aS'Chester_A_Arthur'
p1336
asS'2190'
p1337
(lp1338
S'train'
p1339
aS'WIKI'
p1340
aS'Unemployment'
p1341
asS'2191'
p1342
(lp1343
S'train'
p1344
aS'WIKI'
p1345
aS'Unfinished_symphony'
p1346
asS'2192'
p1347
(lp1348
S'train'
p1349
aS'WIKI'
p1350
aS'United_States'
p1351
asS'2193'
p1352
(lp1353
S'train'
p1354
aS'WIKI'
p1355
aS'Upanishads'
p1356
asS'2194'
p1357
(lp1358
S'train'
p1359
aS'WIKI'
p1360
aS'Upton_Sinclair'
p1361
asS'2196'
p1362
(lp1363
S'train'
p1364
aS'WIKI'
p1365
aS'Uranium'
p1366
asS'2197'
p1367
(lp1368
S'train'
p1369
aS'WIKI'
p1370
aS'Urea_cycle'
p1371
asS'252'
p1372
(lp1373
S'train'
p1374
aS'WIKI'
p1375
aS'Benjamin_Franklin'
p1376
asS'250'
p1377
(lp1378
S'train'
p1379
aS'WIKI'
p1380
aS'Benjamin_Britten'
p1381
asS'251'
p1382
(lp1383
S'train'
p1384
aS'WIKI'
p1385
aS'Benjamin_Disraeli'
p1386
asS'256'
p1387
(lp1388
S'train'
p1389
aS'WIKI'
p1390
aS'Benzene'
p1391
asS'257'
p1392
(lp1393
S'train'
p1394
aS'WIKI'
p1395
aS'Beowulf'
p1396
asS'255'
p1397
(lp1398
S'train'
p1399
aS'WIKI'
p1400
aS'Benvenuto_Cellini'
p1401
asS'2200'
p1402
(lp1403
S'train'
p1404
aS'WIKI'
p1405
aS'Utilitarianism'
p1406
asS'2201'
p1407
(lp1408
S'train'
p1409
aS'WIKI'
p1410
aS'V_S_Naipaul'
p1411
asS'2203'
p1412
(lp1413
S'train'
p1414
aS'WIKI'
p1415
aS'Van_Allen_radiation_belt'
p1416
asS'2206'
p1417
(lp1418
S'train'
p1419
aS'WIKI'
p1420
aS'Vapor_pressure'
p1421
asS'2207'
p1422
(lp1423
S'train'
p1424
aS'WIKI'
p1425
aS'Vasopressin'
p1426
asS'2209'
p1427
(lp1428
S'train'
p1429
aS'WIKI'
p1430
aS'Velocity'
p1431
asS'169'
p1432
(lp1433
S'train'
p1434
aS'WIKI'
p1435
aS'As_You_Like_It'
p1436
asS'164'
p1437
(lp1438
S'train'
p1439
aS'WIKI'
p1440
aS'Arthur_Miller'
p1441
asS'166'
p1442
(lp1443
S'train'
p1444
aS'WIKI'
p1445
aS'Arthur_Schopenhauer'
p1446
asS'167'
p1447
(lp1448
S'train'
p1449
aS'WIKI'
p1450
aS'Arthur_Wellesley_1st_Duke_of_Wellington'
p1451
asS'161'
p1452
(lp1453
S'train'
p1454
aS'WIKI'
p1455
aS'Artemis'
p1456
asS'162'
p1457
(lp1458
S'train'
p1459
aS'WIKI'
p1460
aS'Arthropod'
p1461
asS'1842'
p1462
(lp1463
S'train'
p1464
aS'WIKI'
p1465
aS'Song_Dynasty'
p1466
asS'1841'
p1467
(lp1468
S'train'
p1469
aS'WIKI'
p1470
aS'Solubility'
p1471
asS'1814'
p1472
(lp1473
S'train'
p1474
aS'WIKI'
p1475
aS'Siegfried_(opera)'
p1476
asS'1816'
p1477
(lp1478
S'train'
p1479
aS'WIKI'
p1480
aS'Sigmund_Freud'
p1481
asS'1817'
p1482
(lp1483
S'train'
p1484
aS'WIKI'
p1485
aS'Sigrid_Undset'
p1486
asS'1810'
p1487
(lp1488
S'train'
p1489
aS'WIKI'
p1490
aS'Shiva'
p1491
asS'1813'
p1492
(lp1493
S'train'
p1494
aS'WIKI'
p1495
aS'Sidney_Lanier'
p1496
asS'1818'
p1497
(lp1498
S'train'
p1499
aS'WIKI'
p1500
aS'Sikhism'
p1501
asS'1819'
p1502
(lp1503
S'train'
p1504
aS'WIKI'
p1505
aS'Silas_Marner'
p1506
asS'670'
p1507
(lp1508
S'train'
p1509
aS'WIKI'
p1510
aS'Ezra_Pound'
p1511
asS'671'
p1512
(lp1513
S'train'
p1514
aS'WIKI'
p1515
aS'F_Scott_Fitzgerald'
p1516
asS'1608'
p1517
(lp1518
S'train'
p1519
aS'WIKI'
p1520
aS'Pilgrimage_of_Grace'
p1521
asS'1979'
p1522
(lp1523
S'train'
p1524
aS'WIKI'
p1525
aS'The_Death_of_the_Hired_Man'
p1526
asS'1978'
p1527
(lp1528
S'train'
p1529
aS'WIKI'
p1530
aS'The_Death_of_Socrates'
p1531
asS'1601'
p1532
(lp1533
S'train'
p1534
aS'WIKI'
p1535
aS'Pierre_Corneille'
p1536
asS'1600'
p1537
(lp1538
S'train'
p1539
aS'WIKI'
p1540
aS'Pierre_Bourdieu'
p1541
asS'1603'
p1542
(lp1543
S'train'
p1544
aS'WIKI'
p1545
aS'Pierre-Auguste_Renoir'
p1546
asS'1974'
p1547
(lp1548
S'train'
p1549
aS'WIKI'
p1550
aS'The_Dagda'
p1551
asS'1605'
p1552
(lp1553
S'train'
p1554
aS'WIKI'
p1555
aS'Piet_Mondrian'
p1556
asS'1972'
p1557
(lp1558
S'train'
p1559
aS'WIKI'
p1560
aS'The_Creation_(Haydn)'
p1561
asS'1606'
p1562
(lp1563
S'train'
p1564
aS'WIKI'
p1565
aS'Pieter_Bruegel_the_Elder'
p1566
asS'809'
p1567
(lp1568
S'train'
p1569
aS'WIKI'
p1570
aS'Gilbert_N_Lewis'
p1571
asS'808'
p1572
(lp1573
S'train'
p1574
aS'WIKI'
p1575
aS'Gideon'
p1576
asS'803'
p1577
(lp1578
S'train'
p1579
aS'WIKI'
p1580
aS'Giambattista_Vico'
p1581
asS'802'
p1582
(lp1583
S'train'
p1584
aS'WIKI'
p1585
aS'Giacomo_Puccini'
p1586
asS'807'
p1587
(lp1588
S'train'
p1589
aS'WIKI'
p1590
aS'Gibraltar'
p1591
asS'804'
p1592
(lp1593
S'train'
p1594
aS'WIKI'
p1595
aS'Gian_Lorenzo_Bernini'
p1596
asS'1775'
p1597
(lp1598
S'train'
p1599
aS'WIKI'
p1600
aS'Scattering'
p1601
asS'1776'
p1602
(lp1603
S'train'
p1604
aS'WIKI'
p1605
aS'Schenck_v_United_States'
p1606
asS'1771'
p1607
(lp1608
S'train'
p1609
aS'WIKI'
p1610
aS'Sargon_of_Akkad'
p1611
asS'1770'
p1612
(lp1613
S'train'
p1614
aS'WIKI'
p1615
aS'Santiago'
p1616
asS'1773'
p1617
(lp1618
S'train'
p1619
aS'WIKI'
p1620
aS'Saul_Bellow'
p1621
asS'1779'
p1622
(lp1623
S'train'
p1624
aS'WIKI'
p1625
aS'Scotland'
p1626
asS'1778'
p1627
(lp1628
S'train'
p1629
aS'WIKI'
p1630
aS'Scopes_Trial'
p1631
asS'608'
p1632
(lp1633
S'train'
p1634
aS'WIKI'
p1635
aS'Einstein_on_the_Beach'
p1636
asS'1159'
p1637
(lp1638
S'train'
p1639
aS'WIKI'
p1640
aS'Justinian_I'
p1641
asS'1158'
p1642
(lp1643
S'train'
p1644
aS'WIKI'
p1645
aS'Jurgen_Habermas'
p1646
asS'1154'
p1647
(lp1648
S'train'
p1649
aS'WIKI'
p1650
aS"July's_People"
p1651
asS'1157'
p1652
(lp1653
S'train'
p1654
aS'WIKI'
p1655
aS'Jurassic'
p1656
asS'1150'
p1657
(lp1658
S'train'
p1659
aS'WIKI'
p1660
aS'Julio_Cortazar'
p1661
asS'1152'
p1662
(lp1663
S'train'
p1664
aS'WIKI'
p1665
aS'Julius_Nyerere'
p1666
asS'59'
p1667
(lp1668
S'train'
p1669
aS'WIKI'
p1670
aS'Akbar'
p1671
asS'1551'
p1672
(lp1673
S'train'
p1674
aS'WIKI'
p1675
aS'Pauli_exclusion_principle'
p1676
asS'1550'
p1677
(lp1678
S'train'
p1679
aS'WIKI'
p1680
aS'Paul_Klee'
p1681
asS'1553'
p1682
(lp1683
S'train'
p1684
aS'WIKI'
p1685
aS"Peasants'_Revolt"
p1686
asS'1555'
p1687
(lp1688
S'train'
p1689
aS'WIKI'
p1690
aS'Pele_(deity)'
p1691
asS'1557'
p1692
(lp1693
S'train'
p1694
aS'WIKI'
p1695
aS'Pendulum'
p1696
asS'1556'
p1697
(lp1698
S'train'
p1699
aS'WIKI'
p1700
aS'Pelops'
p1701
asS'1559'
p1702
(lp1703
S'train'
p1704
aS'WIKI'
p1705
aS'Peptidoglycan'
p1706
asS'54'
p1707
(lp1708
S'train'
p1709
aS'WIKI'
p1710
aS'AEthelred_the_Unready'
p1711
asS'57'
p1712
(lp1713
S'train'
p1714
aS'WIKI'
p1715
aS'Ahura_Mazda'
p1716
asS'56'
p1717
(lp1718
S'train'
p1719
aS'WIKI'
p1720
aS'Agni'
p1721
asS'51'
p1722
(lp1723
S'train'
p1724
aS'WIKI'
p1725
aS'Adonais'
p1726
asS'50'
p1727
(lp1728
S'train'
p1729
aS'WIKI'
p1730
aS'Adolf_Hitler'
p1731
asS'52'
p1732
(lp1733
S'train'
p1734
aS'WIKI'
p1735
aS'Aeneas'
p1736
asS'536'
p1737
(lp1738
S'train'
p1739
aS'WIKI'
p1740
aS'Dido_and_Aeneas'
p1741
asS'534'
p1742
(lp1743
S'train'
p1744
aS'WIKI'
p1745
aS'Determinant'
p1746
asS'533'
p1747
(lp1748
S'train'
p1749
aS'WIKI'
p1750
aS'Detective'
p1751
asS'532'
p1752
(lp1753
S'train'
p1754
aS'WIKI'
p1755
aS'Desiderius_Erasmus'
p1756
asS'531'
p1757
(lp1758
S'train'
p1759
aS'WIKI'
p1760
aS'Derek_Walcott'
p1761
asS'1558'
p1762
(lp1763
S'train'
p1764
aS'WIKI'
p1765
aS'Pennsylvania'
p1766
asS'539'
p1767
(lp1768
S'train'
p1769
aS'WIKI'
p1770
aS'Diels-Alder_reaction'
p1771
asS'429'
p1772
(lp1773
S'train'
p1774
aS'WIKI'
p1775
aS'Colloid'
p1776
asS'428'
p1777
(lp1778
S'train'
p1779
aS'WIKI'
p1780
aS'Collagen'
p1781
asS'421'
p1782
(lp1783
S'train'
p1784
aS'WIKI'
p1785
aS'Cleisthenes'
p1786
asS'1396'
p1787
(lp1788
S'train'
p1789
aS'WIKI'
p1790
aS'Mongolia'
p1791
asS'1394'
p1792
(lp1793
S'train'
p1794
aS'WIKI'
p1795
aS'Momentum'
p1796
asS'1393'
p1797
(lp1798
S'train'
p1799
aS'WIKI'
p1800
aS'Moment_of_inertia'
p1801
asS'1392'
p1802
(lp1803
S'train'
p1804
aS'WIKI'
p1805
aS'Mollusca'
p1806
asS'427'
p1807
(lp1808
S'train'
p1809
aS'WIKI'
p1810
aS'Cognitive_dissonance'
p1811
asS'426'
p1812
(lp1813
S'train'
p1814
aS'WIKI'
p1815
aS'Cobalt'
p1816
asS'1443'
p1817
(lp1818
S'train'
p1819
aS'WIKI'
p1820
aS'Nickel'
p1821
asS'2183'
p1822
(lp1823
S'train'
p1824
aS'WIKI'
p1825
aS'Ukraine'
p1826
asS'2182'
p1827
(lp1828
S'train'
p1829
aS'WIKI'
p1830
aS'Uganda'
p1831
asS'2181'
p1832
(lp1833
S'train'
p1834
aS'WIKI'
p1835
aS'Tyr'
p1836
asS'2187'
p1837
(lp1838
S'train'
p1839
aS'WIKI'
p1840
aS'Umberto_Eco'
p1841
asS'2186'
p1842
(lp1843
S'train'
p1844
aS'WIKI'
p1845
aS'Umayyad_Caliphate'
p1846
asS'2185'
p1847
(lp1848
S'train'
p1849
aS'WIKI'
p1850
aS'Ulysses_(poem)'
p1851
asS'2184'
p1852
(lp1853
S'train'
p1854
aS'WIKI'
p1855
aS'Ulysses_(novel)'
p1856
asS'227'
p1857
(lp1858
S'train'
p1859
aS'WIKI'
p1860
aS'Battle_of_Salamis'
p1861
asS'226'
p1862
(lp1863
S'train'
p1864
aS'WIKI'
p1865
aS'Battle_of_Plassey'
p1866
asS'225'
p1867
(lp1868
S'train'
p1869
aS'WIKI'
p1870
aS'Battle_of_Marengo'
p1871
asS'224'
p1872
(lp1873
S'train'
p1874
aS'WIKI'
p1875
aS'Battle_of_Marathon'
p1876
asS'223'
p1877
(lp1878
S'train'
p1879
aS'WIKI'
p1880
aS'Battle_of_Manzikert'
p1881
asS'221'
p1882
(lp1883
S'train'
p1884
aS'WIKI'
p1885
aS'Battle_of_Leipzig'
p1886
asS'2213'
p1887
(lp1888
S'train'
p1889
aS'WIKI'
p1890
aS'Verdun'
p1891
asS'2212'
p1892
(lp1893
S'train'
p1894
aS'WIKI'
p1895
aS'Venus'
p1896
asS'2211'
p1897
(lp1898
S'train'
p1899
aS'WIKI'
p1900
aS'Venus_of_Urbino'
p1901
asS'2210'
p1902
(lp1903
S'train'
p1904
aS'WIKI'
p1905
aS'Venice'
p1906
asS'2217'
p1907
(lp1908
S'train'
p1909
aS'WIKI'
p1910
aS'Vietnam_War'
p1911
asS'2215'
p1912
(lp1913
S'train'
p1914
aS'WIKI'
p1915
aS'Victor_Hugo'
p1916
asS'2214'
p1917
(lp1918
S'train'
p1919
aS'WIKI'
p1920
aS'Vertigo_(film)'
p1921
asS'2219'
p1922
(lp1923
S'train'
p1924
aS'WIKI'
p1925
aS'View_of_Delft'
p1926
asS'2218'
p1927
(lp1928
S'train'
p1929
aS'WIKI'
p1930
aS'Vietnam'
p1931
asS'2230'
p1932
(lp1933
S'train'
p1934
aS'WIKI'
p1935
aS'Vlad_the_Impaler'
p1936
asS'151'
p1937
(lp1938
S'train'
p1939
aS'WIKI'
p1940
aS'Aristophanes'
p1941
asS'153'
p1942
(lp1943
S'train'
p1944
aS'WIKI'
p1945
aS'Arizona'
p1946
asS'157'
p1947
(lp1948
S'train'
p1949
aS'WIKI'
p1950
aS'Arrhenius_equation'
p1951
asS'156'
p1952
(lp1953
S'train'
p1954
aS'WIKI'
p1955
aS'Aromaticity'
p1956
asS'158'
p1957
(lp1958
S'train'
p1959
aS'WIKI'
p1960
aS"Arrow's_impossibility_theorem"
p1961
asS'1807'
p1962
(lp1963
S'train'
p1964
aS'WIKI'
p1965
aS'Sherman_Antitrust_Act'
p1966
asS'1805'
p1967
(lp1968
S'train'
p1969
aS'WIKI'
p1970
aS'She_Stoops_to_Conquer'
p1971
asS'1803'
p1972
(lp1973
S'train'
p1974
aS'WIKI'
p1975
aS'Shavuot'
p1976
asS'1524'
p1977
(lp1978
S'train'
p1979
aS'WIKI'
p1980
aS'Pagliacci'
p1981
asS'1949'
p1982
(lp1983
S'train'
p1984
aS'WIKI'
p1985
aS'The_Awakening_(Chopin_novel)'
p1986
asS'1525'
p1987
(lp1988
S'train'
p1989
aS'WIKI'
p1990
aS'Pakistan'
p1991
asS'1942'
p1992
(lp1993
S'train'
p1994
aS'WIKI'
p1995
aS'The_Affluent_Society'
p1996
asS'1943'
p1997
(lp1998
S'train'
p1999
aS'WIKI'
p2000
aS'The_Alchemist_(play)'
p2001
asS'1940'
p2002
(lp2003
S'train'
p2004
aS'WIKI'
p2005
aS'Thailand'
p2006
asS'1941'
p2007
(lp2008
S'train'
p2009
aS'WIKI'
p2010
aS'Thanatopsis'
p2011
asS'1947'
p2012
(lp2013
S'train'
p2014
aS'WIKI'
p2015
aS'The_Anatomy_Lesson_of_Dr_Nicolaes_Tulp'
p2016
asS'1945'
p2017
(lp2018
S'train'
p2019
aS'WIKI'
p2020
aS'The_Ambassadors_(Holbein)'
p2021
asS'818'
p2022
(lp2023
S'train'
p2024
aS'WIKI'
p2025
aS'Giuseppe_Mazzini'
p2026
asS'819'
p2027
(lp2028
S'train'
p2029
aS'WIKI'
p2030
aS'Giuseppe_Verdi'
p2031
asS'810'
p2032
(lp2033
S'train'
p2034
aS'WIKI'
p2035
aS'Gilbert_Ryle'
p2036
asS'812'
p2037
(lp2038
S'train'
p2039
aS'WIKI'
p2040
aS'Giorgio_de_Chirico'
p2041
asS'813'
p2042
(lp2043
S'train'
p2044
aS'WIKI'
p2045
aS'Giovanni_Pierluigi_da_Palestrina'
p2046
asS'814'
p2047
(lp2048
S'train'
p2049
aS'WIKI'
p2050
aS'Girolamo_Savonarola'
p2051
asS'816'
p2052
(lp2053
S'train'
p2054
aS'WIKI'
p2055
aS'Gitanjali'
p2056
asS'817'
p2057
(lp2058
S'train'
p2059
aS'WIKI'
p2060
aS'Giuseppe_Garibaldi'
p2061
asS'1991'
p2062
(lp2063
S'train'
p2064
aS'WIKI'
p2065
aS'The_Glass_Menagerie'
p2066
asS'1250'
p2067
(lp2068
S'train'
p2069
aS'WIKI'
p2070
aS'Liquid_crystal'
p2071
asS'1990'
p2072
(lp2073
S'train'
p2074
aS'WIKI'
p2075
aS'The_Glass_Bead_Game'
p2076
asS'1251'
p2077
(lp2078
S'train'
p2079
aS'WIKI'
p2080
aS'List_of_fictional_dogs'
p2081
asS'1491'
p2082
(lp2083
S'train'
p2084
aS'WIKI'
p2085
aS'On_the_Road'
p2086
asS'1492'
p2087
(lp2088
S'train'
p2089
aS'WIKI'
p2090
aS'One_Hundred_Years_of_Solitude'
p2091
asS'1494'
p2092
(lp2093
S'train'
p2094
aS'WIKI'
p2095
aS'Oort_cloud'
p2096
asS'1495'
p2097
(lp2098
S'train'
p2099
aS'WIKI'
p2100
aS'Open_set'
p2101
asS'1497'
p2102
(lp2103
S'train'
p2104
aS'WIKI'
p2105
aS'Opium_Wars'
p2106
asS'1498'
p2107
(lp2108
S'train'
p2109
aS'WIKI'
p2110
aS'Oresteia#The_Eumenides'
p2111
asS'422'
p2112
(lp2113
S'train'
p2114
aS'WIKI'
p2115
aS'Clemmensen_reduction'
p2116
asS'1704'
p2117
(lp2118
S'train'
p2119
aS'WIKI'
p2120
aS'Ribosome'
p2121
asS'1705'
p2122
(lp2123
S'train'
p2124
aS'WIKI'
p2125
aS'Ribozyme'
p2126
asS'1707'
p2127
(lp2128
S'train'
p2129
aS'WIKI'
p2130
aS'Richard_II_(play)'
p2131
asS'1708'
p2132
(lp2133
S'train'
p2134
aS'WIKI'
p2135
aS'Richard_Nixon'
p2136
asS'424'
p2137
(lp2138
S'train'
p2139
aS'WIKI'
p2140
aS'Cloud'
p2141
asS'1391'
p2142
(lp2143
S'train'
p2144
aS'WIKI'
p2145
aS'Molecular_orbital'
p2146
asS'1128'
p2147
(lp2148
S'train'
p2149
aS'WIKI'
p2150
aS'John_von_Neumann'
p2151
asS'1129'
p2152
(lp2153
S'train'
p2154
aS'WIKI'
p2155
aS'John_King_of_England'
p2156
asS'1120'
p2157
(lp2158
S'train'
p2159
aS'WIKI'
p2160
aS'John_Quincy_Adams'
p2161
asS'1121'
p2162
(lp2163
S'train'
p2164
aS'WIKI'
p2165
aS'John_Rawls'
p2166
asS'1122'
p2167
(lp2168
S'train'
p2169
aS'WIKI'
p2170
aS'John_Singer_Sargent'
p2171
asS'1124'
p2172
(lp2173
S'train'
p2174
aS'WIKI'
p2175
aS'John_Steinbeck'
p2176
asS'1125'
p2177
(lp2178
S'train'
p2179
aS'WIKI'
p2180
aS'John_Stuart_Mill'
p2181
asS'1126'
p2182
(lp2183
S'train'
p2184
aS'WIKI'
p2185
aS'John_Tyler'
p2186
asS'1127'
p2187
(lp2188
S'train'
p2189
aS'WIKI'
p2190
aS'John_Updike'
p2191
asS'524'
p2192
(lp2193
S'train'
p2194
aS'WIKI'
p2195
aS'Demand'
p2196
asS'525'
p2197
(lp2198
S'train'
p2199
aS'WIKI'
p2200
aS'Demeter'
p2201
asS'526'
p2202
(lp2203
S'train'
p2204
aS'WIKI'
p2205
aS'Deng_Xiaoping'
p2206
asS'527'
p2207
(lp2208
S'train'
p2209
aS'WIKI'
p2210
aS'Denis_Diderot'
p2211
asS'520'
p2212
(lp2213
S'train'
p2214
aS'WIKI'
p2215
aS'Death_of_a_Salesman'
p2216
asS'521'
p2217
(lp2218
S'train'
p2219
aS'WIKI'
p2220
aS'Death'
p2221
asS'522'
p2222
(lp2223
S'train'
p2224
aS'WIKI'
p2225
aS'Decembrist_revolt'
p2226
asS'523'
p2227
(lp2228
S'train'
p2229
aS'WIKI'
p2230
aS'Deirdre'
p2231
asS'1014'
p2232
(lp2233
S'train'
p2234
aS'WIKI'
p2235
aS'Interferometry'
p2236
asS'1015'
p2237
(lp2238
S'train'
p2239
aS'WIKI'
p2240
aS'Interferon'
p2241
asS'1016'
p2242
(lp2243
S'train'
p2244
aS'WIKI'
p2245
aS'Intron'
p2246
asS'1017'
p2247
(lp2248
S'train'
p2249
aS'WIKI'
p2250
aS'Invisible_Man'
p2251
asS'1010'
p2252
(lp2253
S'train'
p2254
aS'WIKI'
p2255
aS'Inner_core'
p2256
asS'1012'
p2257
(lp2258
S'train'
p2259
aS'WIKI'
p2260
aS'Integer'
p2261
asS'1235'
p2262
(lp2263
S'train'
p2264
aS'WIKI'
p2265
aS'Leviathan_(book)'
p2266
asS'1236'
p2267
(lp2268
S'train'
p2269
aS'WIKI'
p2270
aS'Leviathan'
p2271
asS'1237'
p2272
(lp2273
S'train'
p2274
aS'WIKI'
p2275
aS'Lewis_Cass'
p2276
asS'1230'
p2277
(lp2278
S'train'
p2279
aS'WIKI'
p2280
aS"Les_Demoiselles_d'Avignon"
p2281
asS'1233'
p2282
(lp2283
S'train'
p2284
aS'WIKI'
p2285
aS'Lev_Landau'
p2286
asS'1238'
p2287
(lp2288
S'train'
p2289
aS'WIKI'
p2290
aS'Lewis_H_Morgan'
p2291
asS'1239'
p2292
(lp2293
S'train'
p2294
aS'WIKI'
p2295
aS'Lewis_Mumford'
p2296
asS'438'
p2297
(lp2298
S'train'
p2299
aS'WIKI'
p2300
aS'Compromise_of_1850'
p2301
asS'436'
p2302
(lp2303
S'train'
p2304
aS'WIKI'
p2305
aS'Comparative_advantage'
p2306
asS'437'
p2307
(lp2308
S'train'
p2309
aS'WIKI'
p2310
aS'Compiler'
p2311
asS'430'
p2312
(lp2313
S'train'
p2314
aS'WIKI'
p2315
aS'Colombia'
p2316
asS'431'
p2317
(lp2318
S'train'
p2319
aS'WIKI'
p2320
aS'Colorado'
p2321
asS'1961'
p2322
(lp2323
S'train'
p2324
aS'WIKI'
p2325
aS'The_Calling_of_St_Matthew_(Caravaggio)'
p2326
asS'239'
p2327
(lp2328
S'train'
p2329
aS'WIKI'
p2330
aS'Bear'
p2331
asS'234'
p2332
(lp2333
S'train'
p2334
aS'WIKI'
p2335
aS'Battle_of_the_Thames'
p2336
asS'235'
p2337
(lp2338
S'train'
p2339
aS'WIKI'
p2340
aS'Battle_of_Trenton'
p2341
asS'236'
p2342
(lp2343
S'train'
p2344
aS'WIKI'
p2345
aS'Battle_of_Zama'
p2346
asS'237'
p2347
(lp2348
S'train'
p2349
aS'WIKI'
p2350
aS'Battles_of_Saratoga'
p2351
asS'232'
p2352
(lp2353
S'train'
p2354
aS'WIKI'
p2355
aS'Battle_of_the_Boyne'
p2356
asS'233'
p2357
(lp2358
S'train'
p2359
aS'WIKI'
p2360
aS'Battle_of_the_Bulge'
p2361
asS'2229'
p2362
(lp2363
S'train'
p2364
aS'WIKI'
p2365
aS'Visigoths'
p2366
asS'2226'
p2367
(lp2368
S'train'
p2369
aS'WIKI'
p2370
aS'Virginia'
p2371
asS'2227'
p2372
(lp2373
S'train'
p2374
aS'WIKI'
p2375
aS'Viscosity'
p2376
asS'2225'
p2377
(lp2378
S'train'
p2379
aS'WIKI'
p2380
aS'Virginia_Woolf'
p2381
asS'2222'
p2382
(lp2383
S'train'
p2384
aS'WIKI'
p2385
aS'Vilfredo_Pareto'
p2386
asS'2223'
p2387
(lp2388
S'train'
p2389
aS'WIKI'
p2390
aS'Vincent_van_Gogh'
p2391
asS'2221'
p2392
(lp2393
S'train'
p2394
aS'WIKI'
p2395
aS'Vikram_Seth'
p2396
asS'1'
(lp2397
S'train'
p2398
aS'WIKI'
p2399
aS'1812_Overture'
p2400
asS'146'
p2401
(lp2402
S'train'
p2403
aS'WIKI'
p2404
aS'Archibald_MacLeish'
p2405
asS'147'
p2406
(lp2407
S'train'
p2408
aS'WIKI'
p2409
aS'Archimedes'
p2410
asS'144'
p2411
(lp2412
S'train'
p2413
aS'WIKI'
p2414
aS'Aral_Sea'
p2415
asS'145'
p2416
(lp2417
S'train'
p2418
aS'WIKI'
p2419
aS'Aram_Khachaturian'
p2420
asS'142'
p2421
(lp2422
S'train'
p2423
aS'WIKI'
p2424
aS'Apoptosis'
p2425
asS'143'
p2426
(lp2427
S'train'
p2428
aS'WIKI'
p2429
aS'Aquifer'
p2430
asS'140'
p2431
(lp2432
S'train'
p2433
aS'WIKI'
p2434
aS'Apollo'
p2435
asS'141'
p2436
(lp2437
S'train'
p2438
aS'WIKI'
p2439
aS'Apology_(Plato)'
p2440
asS'148'
p2441
(lp2442
S'train'
p2443
aS'WIKI'
p2444
aS'Ares'
p2445
asS'149'
p2446
(lp2447
S'train'
p2448
aS'WIKI'
p2449
aS'Argentina'
p2450
asS'2088'
p2451
(lp2452
S'train'
p2453
aS'WIKI'
p2454
aS'Their_Eyes_Were_Watching_God'
p2455
asS'2089'
p2456
(lp2457
S'train'
p2458
aS'WIKI'
p2459
aS'Thelonious_Monk'
p2460
asS'2080'
p2461
(lp2462
S'train'
p2463
aS'WIKI'
p2464
aS'The_Tribute_Money_(Masaccio)'
p2465
asS'2081'
p2466
(lp2467
S'train'
p2468
aS'WIKI'
p2469
aS'The_Turn_of_the_Screw'
p2470
asS'2084'
p2471
(lp2472
S'train'
p2473
aS'WIKI'
p2474
aS'The_Waste_Land'
p2475
asS'1833'
p2476
(lp2477
S'train'
p2478
aS'WIKI'
p2479
aS'Snake_River'
p2480
asS'1830'
p2481
(lp2482
S'train'
p2483
aS'WIKI'
p2484
aS'Sistine_Chapel'
p2485
asS'1831'
p2486
(lp2487
S'train'
p2488
aS'WIKI'
p2489
aS'Sisyphus'
p2490
asS'1837'
p2491
(lp2492
S'train'
p2493
aS'WIKI'
p2494
aS'Socialist_Republic_of_Chile'
p2495
asS'1834'
p2496
(lp2497
S'train'
p2498
aS'WIKI'
p2499
aS'Snake'
p2500
asS'1835'
p2501
(lp2502
S'train'
p2503
aS'WIKI'
p2504
aS'Snow_(Pamuk_novel)'
p2505
asS'1839'
p2506
(lp2507
S'train'
p2508
aS'WIKI'
p2509
aS'Solar_wind'
p2510
asS'2154'
p2511
(lp2512
S'train'
p2513
aS'WIKI'
p2514
aS'Travelling_salesman_problem'
p2515
asS'2155'
p2516
(lp2517
S'train'
p2518
aS'WIKI'
p2519
aS'Treaty_of_Aix-la-Chapelle_(1748)'
p2520
asS'939'
p2521
(lp2522
S'train'
p2523
aS'WIKI'
p2524
aS'Henry_VIII_of_England'
p2525
asS'2150'
p2526
(lp2527
S'train'
p2528
aS'WIKI'
p2529
aS'Tractatus_Theologico-Politicus'
p2530
asS'2153'
p2531
(lp2532
S'train'
p2533
aS'WIKI'
p2534
aS'Transposable_element'
p2535
asS'933'
p2536
(lp2537
S'train'
p2538
aS'WIKI'
p2539
aS'Henry_L_Stimson'
p2540
asS'932'
p2541
(lp2542
S'train'
p2543
aS'WIKI'
p2544
aS'Henry_James'
p2545
asS'931'
p2546
(lp2547
S'train'
p2548
aS'WIKI'
p2549
aS'Henry_IV_of_France'
p2550
asS'930'
p2551
(lp2552
S'train'
p2553
aS'WIKI'
p2554
aS'Henry_III_of_France'
p2555
asS'937'
p2556
(lp2557
S'train'
p2558
aS'WIKI'
p2559
aS'Henry_the_Navigator'
p2560
asS'936'
p2561
(lp2562
S'train'
p2563
aS'WIKI'
p2564
aS'Henry_Purcell'
p2565
asS'935'
p2566
(lp2567
S'train'
p2568
aS'WIKI'
p2569
aS'Henry_Moore'
p2570
asS'934'
p2571
(lp2572
S'train'
p2573
aS'WIKI'
p2574
aS'Henry_Miller'
p2575
asS'1955'
p2576
(lp2577
S'train'
p2578
aS'WIKI'
p2579
aS'The_Bluest_Eye'
p2580
asS'1956'
p2581
(lp2582
S'train'
p2583
aS'WIKI'
p2584
aS'The_Bostonians'
p2585
asS'1951'
p2586
(lp2587
S'train'
p2588
aS'WIKI'
p2589
aS'The_Barber_of_Seville'
p2590
asS'1959'
p2591
(lp2592
S'train'
p2593
aS'WIKI'
p2594
aS'The_Brothers_Karamazov'
p2595
asS'1958'
p2596
(lp2597
S'train'
p2598
aS'WIKI'
p2599
aS'The_Bronze_Horseman_(poem)'
p2600
asS'829'
p2601
(lp2602
S'train'
p2603
aS'WIKI'
p2604
aS'Goldberg_Variations'
p2605
asS'828'
p2606
(lp2607
S'train'
p2608
aS'WIKI'
p2609
aS'Gold'
p2610
asS'824'
p2611
(lp2612
S'train'
p2613
aS'WIKI'
p2614
aS'Glycine'
p2615
asS'827'
p2616
(lp2617
S'train'
p2618
aS'WIKI'
p2619
aS'Gobi_Desert'
p2620
asS'821'
p2621
(lp2622
S'train'
p2623
aS'WIKI'
p2624
aS'Glass'
p2625
asS'820'
p2626
(lp2627
S'train'
p2628
aS'WIKI'
p2629
aS'Glacier'
p2630
asS'823'
p2631
(lp2632
S'train'
p2633
aS'WIKI'
p2634
aS'Gluon'
p2635
asS'822'
p2636
(lp2637
S'train'
p2638
aS'WIKI'
p2639
aS'Glengarry_Glen_Ross'
p2640
asS'1483'
p2641
(lp2642
S'train'
p2643
aS'WIKI'
p2644
aS'Oliver_Cromwell'
p2645
asS'1482'
p2646
(lp2647
S'train'
p2648
aS'WIKI'
p2649
aS"Ohm's_law"
p2650
asS'1481'
p2651
(lp2652
S'train'
p2653
aS'WIKI'
p2654
aS'Ohio'
p2655
asS'1487'
p2656
(lp2657
S'train'
p2658
aS'WIKI'
p2659
aS'Olivine'
p2660
asS'1485'
p2661
(lp2662
S'train'
p2663
aS'WIKI'
p2664
aS'Oliver_Wendell_Holmes_Jr'
p2665
asS'1484'
p2666
(lp2667
S'train'
p2668
aS'WIKI'
p2669
aS'Oliver_Goldsmith'
p2670
asS'1489'
p2671
(lp2672
S'train'
p2673
aS'WIKI'
p2674
aS'Olympia_(Manet)'
p2675
asS'1488'
p2676
(lp2677
S'train'
p2678
aS'WIKI'
p2679
aS'Olmec'
p2680
asS'797'
p2681
(lp2682
S'train'
p2683
aS'WIKI'
p2684
aS'Gestalt_psychology'
p2685
asS'796'
p2686
(lp2687
S'train'
p2688
aS'WIKI'
p2689
aS'Gertrude_Stein'
p2690
asS'1711'
p2691
(lp2692
S'train'
p2693
aS'WIKI'
p2694
aS'Richard_Wright_(author)'
p2695
asS'794'
p2696
(lp2697
S'train'
p2698
aS'WIKI'
p2699
aS'Gerhart_Hauptmann'
p2700
asS'1717'
p2701
(lp2702
S'train'
p2703
aS'WIKI'
p2704
aS'River'
p2705
asS'1716'
p2706
(lp2707
S'train'
p2708
aS'WIKI'
p2709
aS'Rio_de_la_Plata'
p2710
asS'1715'
p2711
(lp2712
S'train'
p2713
aS'WIKI'
p2714
aS'Rio_de_Janeiro'
p2715
asS'2146'
p2716
(lp2717
S'train'
p2718
aS'WIKI'
p2719
aS'Torus'
p2720
asS'1719'
p2721
(lp2722
S'train'
p2723
aS'WIKI'
p2724
aS'Rob_Roy_(novel)'
p2725
asS'799'
p2726
(lp2727
S'train'
p2728
aS'WIKI'
p2729
aS'Ghana'
p2730
asS'798'
p2731
(lp2732
S'train'
p2733
aS'WIKI'
p2734
aS'Getulio_Vargas'
p2735
asS'1270'
p2736
(lp2737
S'train'
p2738
aS'WIKI'
p2739
aS'Louis_Sullivan'
p2740
asS'1272'
p2741
(lp2742
S'train'
p2743
aS'WIKI'
p2744
aS'Louis_XIV_of_France'
p2745
asS'1139'
p2746
(lp2747
S'train'
p2748
aS'WIKI'
p2749
aS'Joseph_McCarthy'
p2750
asS'611'
p2751
(lp2752
S'train'
p2753
aS'WIKI'
p2754
aS'Electric_current'
p2755
asS'1133'
p2756
(lp2757
S'train'
p2758
aS'WIKI'
p2759
aS'Jorge_Luis_Borges'
p2760
asS'1132'
p2761
(lp2762
S'train'
p2763
aS'WIKI'
p2764
aS'Jorge_Amado'
p2765
asS'1131'
p2766
(lp2767
S'train'
p2768
aS'WIKI'
p2769
aS'Jonathan_Swift'
p2770
asS'1130'
p2771
(lp2772
S'train'
p2773
aS'WIKI'
p2774
aS'Jonah'
p2775
asS'1137'
p2776
(lp2777
S'train'
p2778
aS'WIKI'
p2779
aS'Joseph_Haydn'
p2780
asS'1136'
p2781
(lp2782
S'train'
p2783
aS'WIKI'
p2784
aS'Joseph_Conrad'
p2785
asS'1135'
p2786
(lp2787
S'train'
p2788
aS'WIKI'
p2789
aS'Jose_Marti'
p2790
asS'1134'
p2791
(lp2792
S'train'
p2793
aS'WIKI'
p2794
aS'Jose_Clemente_Orozco'
p2795
asS'615'
p2796
(lp2797
S'train'
p2798
aS'WIKI'
p2799
aS'Electronegativity'
p2800
asS'519'
p2801
(lp2802
S'train'
p2803
aS'WIKI'
p2804
aS'Death_in_Venice'
p2805
asS'518'
p2806
(lp2807
S'train'
p2808
aS'WIKI'
p2809
aS'Death_Comes_for_the_Archbishop'
p2810
asS'2149'
p2811
(lp2812
S'train'
p2813
aS'WIKI'
p2814
aS'Tractatus_Logico-Philosophicus'
p2815
asS'1009'
p2816
(lp2817
S'train'
p2818
aS'WIKI'
p2819
aS'Infrared_spectroscopy'
p2820
asS'1007'
p2821
(lp2822
S'train'
p2823
aS'WIKI'
p2824
aS'Indra'
p2825
asS'1006'
p2826
(lp2827
S'train'
p2828
aS'WIKI'
p2829
aS'Indonesia'
p2830
asS'1005'
p2831
(lp2832
S'train'
p2833
aS'WIKI'
p2834
aS'Indian_Rebellion_of_1857'
p2835
asS'1004'
p2836
(lp2837
S'train'
p2838
aS'WIKI'
p2839
aS'India'
p2840
asS'1003'
p2841
(lp2842
S'train'
p2843
aS'WIKI'
p2844
aS'Inca_Empire'
p2845
asS'1002'
p2846
(lp2847
S'train'
p2848
aS'WIKI'
p2849
aS'Immanuel_Kant'
p2850
asS'1001'
p2851
(lp2852
S'train'
p2853
aS'WIKI'
p2854
aS'Illinois'
p2855
asS'1000'
p2856
(lp2857
S'train'
p2858
aS'WIKI'
p2859
aS'Il_trovatore'
p2860
asS'623'
p2861
(lp2862
S'train'
p2863
aS'WIKI'
p2864
aS'Emily_Dickinson'
p2865
asS'622'
p2866
(lp2867
S'train'
p2868
aS'WIKI'
p2869
aS'Emilio_Aguinaldo'
p2870
asS'1225'
p2871
(lp2872
S'train'
p2873
aS'WIKI'
p2874
aS'Leonard_Bernstein'
p2875
asS'620'
p2876
(lp2877
S'train'
p2878
aS'WIKI'
p2879
aS'Emile_Durkheim'
p2880
asS'627'
p2881
(lp2882
S'train'
p2883
aS'WIKI'
p2884
aS'Endymion_(poem)'
p2885
asS'626'
p2886
(lp2887
S'train'
p2888
aS'WIKI'
p2889
aS'Endoplasmic_reticulum'
p2890
asS'1221'
p2891
(lp2892
S'train'
p2893
aS'WIKI'
p2894
aS'Laurence_Sterne'
p2895
asS'1220'
p2896
(lp2897
S'train'
p2898
aS'WIKI'
p2899
aS'Lattice_energy'
p2900
asS'629'
p2901
(lp2902
S'train'
p2903
aS'WIKI'
p2904
aS'Enigma_Variations'
p2905
asS'1229'
p2906
(lp2907
S'train'
p2908
aS'WIKI'
p2909
aS'Leos_Janacek'
p2910
asS'2'
(lp2911
S'train'
p2912
aS'WIKI'
p2913
aS'2_(number)'
p2914
asS'1286'
p2915
(lp2916
S'train'
p2917
aS'WIKI'
p2918
aS'Lysosome'
p2919
asS'10'
p2920
(lp2921
S'train'
p2922
aS'WIKI'
p2923
aS'A_Farewell_to_Arms'
p2924
asS'13'
p2925
(lp2926
S'train'
p2927
aS'WIKI'
p2928
aS'A_Handful_of_Dust'
p2929
asS'12'
p2930
(lp2931
S'train'
p2932
aS'WIKI'
p2933
aS'A_Grain_of_Wheat'
p2934
asS'17'
p2935
(lp2936
S'train'
p2937
aS'WIKI'
p2938
aS'A_Passage_to_India'
p2939
asS'16'
p2940
(lp2941
S'train'
p2942
aS'WIKI'
p2943
aS'A_House_for_Mr_Biswas'
p2944
asS'19'
p2945
(lp2946
S'train'
p2947
aS'WIKI'
p2948
aS'A_Raisin_in_the_Sun'
p2949
asS'200'
p2950
(lp2951
S'train'
p2952
aS'WIKI'
p2953
aS'Baldr'
p2954
asS'202'
p2955
(lp2956
S'train'
p2957
aS'WIKI'
p2958
aS'Baptism'
p2959
asS'204'
p2960
(lp2961
S'train'
p2962
aS'WIKI'
p2963
aS'Bartleby_the_Scrivener'
p2964
asS'208'
p2965
(lp2966
S'train'
p2967
aS'WIKI'
p2968
aS'Battle_of_Adrianople'
p2969
asS'1573'
p2970
(lp2971
S'train'
p2972
aS'WIKI'
p2973
aS'Peterloo_Massacre'
p2974
asS'1571'
p2975
(lp2976
S'train'
p2977
aS'WIKI'
p2978
aS'Peter_Paul_Rubens'
p2979
asS'2238'
p2980
(lp2981
S'train'
p2982
aS'WIKI'
p2983
aS'W_E_B_Du_Bois'
p2984
asS'1570'
p2985
(lp2986
S'train'
p2987
aS'WIKI'
p2988
aS'Peter_Debye'
p2989
asS'1577'
p2990
(lp2991
S'train'
p2992
aS'WIKI'
p2993
aS'Phagocytosis'
p2994
asS'2233'
p2995
(lp2996
S'train'
p2997
aS'WIKI'
p2998
aS'Volpone'
p2999
asS'2235'
p3000
(lp3001
S'train'
p3002
aS'WIKI'
p3003
aS'Vorticity'
p3004
asS'2234'
p3005
(lp3006
S'train'
p3007
aS'WIKI'
p3008
aS'Voltaire'
p3009
asS'2237'
p3010
(lp3011
S'train'
p3012
aS'WIKI'
p3013
aS'W_B_Yeats'
p3014
asS'2236'
p3015
(lp3016
S'train'
p3017
aS'WIKI'
p3018
aS'Vowel'
p3019
asS'1574'
p3020
(lp3021
S'train'
p3022
aS'WIKI'
p3023
aS'Petrarch'
p3024
asS'2095'
p3025
(lp3026
S'train'
p3027
aS'WIKI'
p3028
aS'Theodore_Roosevelt'
p3029
asS'2094'
p3030
(lp3031
S'train'
p3032
aS'WIKI'
p3033
aS'Theodore_Roethke'
p3034
asS'2097'
p3035
(lp3036
S'train'
p3037
aS'WIKI'
p3038
aS'Theseus'
p3039
asS'2096'
p3040
(lp3041
S'train'
p3042
aS'WIKI'
p3043
aS'Thermoelectric_effect#Seebeck_effect'
p3044
asS'2091'
p3045
(lp3046
S'train'
p3047
aS'WIKI'
p3048
aS'Theoderic_the_Great'
p3049
asS'2093'
p3050
(lp3051
S'train'
p3052
aS'WIKI'
p3053
aS'Theodore_Gericault'
p3054
asS'2092'
p3055
(lp3056
S'train'
p3057
aS'WIKI'
p3058
aS'Theodore_Dreiser'
p3059
asS'2099'
p3060
(lp3061
S'train'
p3062
aS'WIKI'
p3063
aS'Thiol'
p3064
asS'2098'
p3065
(lp3066
S'train'
p3067
aS'WIKI'
p3068
aS'Things_Fall_Apart'
p3069
asS'2188'
p3070
(lp3071
S'train'
p3072
aS'WIKI'
p3073
aS'Uncertainty_principle'
p3074
asS'1829'
p3075
(lp3076
S'train'
p3077
aS'WIKI'
p3078
aS'Sister_Carrie'
p3079
asS'1828'
p3080
(lp3081
S'train'
p3082
aS'WIKI'
p3083
aS'Sirius'
p3084
asS'1825'
p3085
(lp3086
S'train'
p3087
aS'WIKI'
p3088
aS'Simone_de_Beauvoir'
p3089
asS'1824'
p3090
(lp3091
S'train'
p3092
aS'WIKI'
p3093
aS'Simon_Bolivar'
p3094
asS'1827'
p3095
(lp3096
S'train'
p3097
aS'WIKI'
p3098
aS'Siren_(mythology)'
p3099
asS'1821'
p3100
(lp3101
S'train'
p3102
aS'WIKI'
p3103
aS'Silurian'
p3104
asS'1820'
p3105
(lp3106
S'train'
p3107
aS'WIKI'
p3108
aS'Silent_Cry'
p3109
asS'1823'
p3110
(lp3111
S'train'
p3112
aS'WIKI'
p3113
aS'Silvio_Berlusconi'
p3114
asS'928'
p3115
(lp3116
S'train'
p3117
aS'WIKI'
p3118
aS'Henry_I_of_England'
p3119
asS'929'
p3120
(lp3121
S'train'
p3122
aS'WIKI'
p3123
aS'Henry_II_of_England'
p3124
asS'2144'
p3125
(lp3126
S'train'
p3127
aS'WIKI'
p3128
aS'Torquato_Tasso'
p3129
asS'2143'
p3130
(lp3131
S'train'
p3132
aS'WIKI'
p3133
aS'Toni_Morrison'
p3134
asS'2142'
p3135
(lp3136
S'train'
p3137
aS'WIKI'
p3138
aS'Tom_Stoppard'
p3139
asS'2141'
p3140
(lp3141
S'train'
p3142
aS'WIKI'
p3143
aS'Tom_Sawyer'
p3144
asS'2140'
p3145
(lp3146
S'train'
p3147
aS'WIKI'
p3148
aS'Tokugawa_shogunate'
p3149
asS'920'
p3150
(lp3151
S'train'
p3152
aS'WIKI'
p3153
aS'Hemoglobin'
p3154
asS'921'
p3155
(lp3156
S'train'
p3157
aS'WIKI'
p3158
aS'Henri_Matisse'
p3159
asS'922'
p3160
(lp3161
S'train'
p3162
aS'WIKI'
p3163
aS'Henri_Rousseau'
p3164
asS'924'
p3165
(lp3166
S'train'
p3167
aS'WIKI'
p3168
aS'Henry_Cabot_Lodge_Jr'
p3169
asS'925'
p3170
(lp3171
S'train'
p3172
aS'WIKI'
p3173
aS'Henry_Clay'
p3174
asS'926'
p3175
(lp3176
S'train'
p3177
aS'WIKI'
p3178
aS'Henry_Fielding'
p3179
asS'927'
p3180
(lp3181
S'train'
p3182
aS'WIKI'
p3183
aS'Henry_Fuseli'
p3184
asS'1921'
p3185
(lp3186
S'train'
p3187
aS'WIKI'
p3188
aS'Tantalus'
p3189
asS'1922'
p3190
(lp3191
S'train'
p3192
aS'WIKI'
p3193
aS'Taoism'
p3194
asS'1923'
p3195
(lp3196
S'train'
p3197
aS'WIKI'
p3198
aS'Tartuffe_(Mechem)'
p3199
asS'1924'
p3200
(lp3201
S'train'
p3202
aS'WIKI'
p3203
aS'Tartuffe'
p3204
asS'1926'
p3205
(lp3206
S'train'
p3207
aS'WIKI'
p3208
aS'Tax'
p3209
asS'1927'
p3210
(lp3211
S'train'
p3212
aS'WIKI'
p3213
aS'Tay-Sachs_disease'
p3214
asS'1929'
p3215
(lp3216
S'train'
p3217
aS'WIKI'
p3218
aS'Tecumseh'
p3219
asS'832'
p3220
(lp3221
S'train'
p3222
aS'WIKI'
p3223
aS'Gospel_of_Luke'
p3224
asS'830'
p3225
(lp3226
S'train'
p3227
aS'WIKI'
p3228
aS'Golden_Horde'
p3229
asS'836'
p3230
(lp3231
S'train'
p3232
aS'WIKI'
p3233
aS'Graham_Greene'
p3234
asS'835'
p3235
(lp3236
S'train'
p3237
aS'WIKI'
p3238
aS'Gottlob_Frege'
p3239
asS'3'
(lp3240
S'train'
p3241
aS'WIKI'
p3242
aS'3_(number)'
p3243
asS'1986'
p3244
(lp3245
S'train'
p3246
aS'WIKI'
p3247
aS'The_Garden_of_Earthly_Delights'
p3248
asS'784'
p3249
(lp3250
S'train'
p3251
aS'WIKI'
p3252
aS'George_Meredith'
p3253
asS'785'
p3254
(lp3255
S'train'
p3256
aS'WIKI'
p3257
aS'George_Orwell'
p3258
asS'787'
p3259
(lp3260
S'train'
p3261
aS'WIKI'
p3262
aS'George_Washington'
p3263
asS'780'
p3264
(lp3265
S'train'
p3266
aS'WIKI'
p3267
aS'George_Frideric_Handel'
p3268
asS'781'
p3269
(lp3270
S'train'
p3271
aS'WIKI'
p3272
aS'George_Gershwin'
p3273
asS'782'
p3274
(lp3275
S'train'
p3276
aS'WIKI'
p3277
aS'George_III_of_the_United_Kingdom'
p3278
asS'783'
p3279
(lp3280
S'train'
p3281
aS'WIKI'
p3282
aS'George_Meade'
p3283
asS'1726'
p3284
(lp3285
S'train'
p3286
aS'WIKI'
p3287
aS'Robert_Peel'
p3288
asS'1724'
p3289
(lp3290
S'train'
p3291
aS'WIKI'
p3292
aS'Robert_K_Merton'
p3293
asS'788'
p3294
(lp3295
S'train'
p3296
aS'WIKI'
p3297
aS'Georges_Bizet'
p3298
asS'1723'
p3299
(lp3300
S'train'
p3301
aS'WIKI'
p3302
aS'Robert_Frost'
p3303
asS'1721'
p3304
(lp3305
S'train'
p3306
aS'WIKI'
p3307
aS'Robert_Burns'
p3308
asS'60'
p3309
(lp3310
S'train'
p3311
aS'WIKI'
p3312
aS'Alan_Paton'
p3313
asS'61'
p3314
(lp3315
S'train'
p3316
aS'WIKI'
p3317
aS'Alan_Turing'
p3318
asS'62'
p3319
(lp3320
S'train'
p3321
aS'WIKI'
p3322
aS'Alaska'
p3323
asS'63'
p3324
(lp3325
S'train'
p3326
aS'WIKI'
p3327
aS'Albania'
p3328
asS'65'
p3329
(lp3330
S'train'
p3331
aS'WIKI'
p3332
aS'Albert_Camus'
p3333
asS'67'
p3334
(lp3335
S'train'
p3336
aS'WIKI'
p3337
aS'Albrecht_Durer'
p3338
asS'1371'
p3339
(lp3340
S'train'
p3341
aS'WIKI'
p3342
aS'Middlemarch'
p3343
asS'1588'
p3344
(lp3345
S'train'
p3346
aS'WIKI'
p3347
aS'Philip_Roth'
p3348
asS'1373'
p3349
(lp3350
S'train'
p3351
aS'WIKI'
p3352
aS'Miguel_Angel_Asturias'
p3353
asS'1585'
p3354
(lp3355
S'train'
p3356
aS'WIKI'
p3357
aS'Philip_II_of_Spain'
p3358
asS'1038'
p3359
(lp3360
S'train'
p3361
aS'WIKI'
p3362
aS'Ivanhoe'
p3363
asS'1039'
p3364
(lp3365
S'train'
p3366
aS'WIKI'
p3367
aS'Ixion'
p3368
asS'1032'
p3369
(lp3370
S'train'
p3371
aS'WIKI'
p3372
aS'Israel'
p3373
asS'504'
p3374
(lp3375
S'train'
p3376
aS'WIKI'
p3377
aS'Das_Lied_von_der_Erde'
p3378
asS'505'
p3379
(lp3380
S'train'
p3381
aS'WIKI'
p3382
aS'Dave_Brubeck'
p3383
asS'1036'
p3384
(lp3385
S'train'
p3386
aS'WIKI'
p3387
aS'Ivan_the_Terrible'
p3388
asS'503'
p3389
(lp3390
S'train'
p3391
aS'WIKI'
p3392
aS'Das_Kapital'
p3393
asS'500'
p3394
(lp3395
S'train'
p3396
aS'WIKI'
p3397
aS'Darius_I'
p3398
asS'501'
p3399
(lp3400
S'train'
p3401
aS'WIKI'
p3402
aS'Dark_energy'
p3403
asS'1212'
p3404
(lp3405
S'train'
p3406
aS'WIKI'
p3407
aS'Lakshmi'
p3408
asS'1213'
p3409
(lp3410
S'train'
p3411
aS'WIKI'
p3412
aS'Lambda_calculus'
p3413
asS'1210'
p3414
(lp3415
S'train'
p3416
aS'WIKI'
p3417
aS'Lake_Victoria'
p3418
asS'633'
p3419
(lp3420
S'train'
p3421
aS'WIKI'
p3422
aS'Enthalpy'
p3423
asS'1216'
p3424
(lp3425
S'train'
p3426
aS'WIKI'
p3427
aS'Laos'
p3428
asS'635'
p3429
(lp3430
S'train'
p3431
aS'WIKI'
p3432
aS'Enzyme'
p3433
asS'636'
p3434
(lp3435
S'train'
p3436
aS'WIKI'
p3437
aS'Epic_of_Gilgamesh'
p3438
asS'637'
p3439
(lp3440
S'train'
p3441
aS'WIKI'
p3442
aS'Epicurus'
p3443
asS'638'
p3444
(lp3445
S'train'
p3446
aS'WIKI'
p3447
aS'Epoxide'
p3448
asS'1219'
p3449
(lp3450
S'train'
p3451
aS'WIKI'
p3452
aS'Laser'
p3453
asS'1729'
p3454
(lp3455
S'train'
p3456
aS'WIKI'
p3457
aS'Rococo'
p3458
asS'1454'
p3459
(lp3460
S'train'
p3461
aS'WIKI'
p3462
aS'Nikolai_Gogol'
p3463
asS'1455'
p3464
(lp3465
S'train'
p3466
aS'WIKI'
p3467
aS'Nikolai_Rimsky-Korsakov'
p3468
asS'1104'
p3469
(lp3470
S'train'
p3471
aS'WIKI'
p3472
aS'John_Constable'
p3473
asS'1457'
p3474
(lp3475
S'train'
p3476
aS'WIKI'
p3477
aS'Nitric_acid'
p3478
asS'1451'
p3479
(lp3480
S'train'
p3481
aS'WIKI'
p3482
aS'Night_of_the_Long_Knives'
p3483
asS'1452'
p3484
(lp3485
S'train'
p3486
aS'WIKI'
p3487
aS'Nighthawks'
p3488
asS'1453'
p3489
(lp3490
S'train'
p3491
aS'WIKI'
p3492
aS'Nikita_Khrushchev'
p3493
asS'1458'
p3494
(lp3495
S'train'
p3496
aS'WIKI'
p3497
aS'Nitrile'
p3498
asS'1459'
p3499
(lp3500
S'train'
p3501
aS'WIKI'
p3502
aS'Nitrogen_fixation'
p3503
asS'1108'
p3504
(lp3505
S'train'
p3506
aS'WIKI'
p3507
aS'John_Dryden'
p3508
asS'1109'
p3509
(lp3510
S'train'
p3511
aS'WIKI'
p3512
aS'John_Everett_Millais'
p3513
asS'1722'
p3514
(lp3515
S'train'
p3516
aS'WIKI'
p3517
aS'Robert_E_Lee'
p3518
asS'2136'
p3519
(lp3520
S'train'
p3521
aS'WIKI'
p3522
aS'To_Kill_a_Mockingbird'
p3523
asS'217'
p3524
(lp3525
S'train'
p3526
aS'WIKI'
p3527
aS'Battle_of_Gaugamela'
p3528
asS'212'
p3529
(lp3530
S'train'
p3531
aS'WIKI'
p3532
aS'Battle_of_Bannockburn'
p3533
asS'213'
p3534
(lp3535
S'train'
p3536
aS'WIKI'
p3537
aS'Battle_of_Bosworth_Field'
p3538
asS'210'
p3539
(lp3540
S'train'
p3541
aS'WIKI'
p3542
aS'Battle_of_Antietam'
p3543
asS'211'
p3544
(lp3545
S'train'
p3546
aS'WIKI'
p3547
aS'Battle_of_Austerlitz'
p3548
asS'218'
p3549
(lp3550
S'train'
p3551
aS'WIKI'
p3552
aS'Battle_of_Gettysburg'
p3553
asS'219'
p3554
(lp3555
S'train'
p3556
aS'WIKI'
p3557
aS'Battle_of_Hastings'
p3558
asS'2139'
p3559
(lp3560
S'train'
p3561
aS'WIKI'
p3562
aS'Tokugawa_Ieyasu'
p3563
asS'4'
(lp3564
S'train'
p3565
aS'WIKI'
p3566
aS'4_(number)'
p3567
asS'1859'
p3568
(lp3569
S'train'
p3570
aS'WIKI'
p3571
aS'Spider'
p3572
asS'1850'
p3573
(lp3574
S'train'
p3575
aS'WIKI'
p3576
aS'South_Korea'
p3577
asS'1851'
p3578
(lp3579
S'train'
p3580
aS'WIKI'
p3581
aS'Spain'
p3582
asS'1852'
p3583
(lp3584
S'train'
p3585
aS'WIKI'
p3586
aS'Spanish_Civil_War'
p3587
asS'1854'
p3588
(lp3589
S'train'
p3590
aS'WIKI'
p3591
aS'Sparta'
p3592
asS'1855'
p3593
(lp3594
S'train'
p3595
aS'WIKI'
p3596
aS'Special_relativity'
p3597
asS'1856'
p3598
(lp3599
S'train'
p3600
aS'WIKI'
p3601
aS'Speciation'
p3602
asS'1857'
p3603
(lp3604
S'train'
p3605
aS'WIKI'
p3606
aS'Speed_of_sound'
p3607
asS'2171'
p3608
(lp3609
S'train'
p3610
aS'WIKI'
p3611
aS'Tryptophan'
p3612
asS'919'
p3613
(lp3614
S'train'
p3615
aS'WIKI'
p3616
aS'Helmholtz_free_energy'
p3617
asS'918'
p3618
(lp3619
S'train'
p3620
aS'WIKI'
p3621
aS'Helium'
p3622
asS'915'
p3623
(lp3624
S'train'
p3625
aS'WIKI'
p3626
aS'Heinrich_Heine'
p3627
asS'914'
p3628
(lp3629
S'train'
p3630
aS'WIKI'
p3631
aS'Heinrich_Boll'
p3632
asS'2178'
p3633
(lp3634
S'train'
p3635
aS'WIKI'
p3636
aS'Twenty_Love_Poems_and_a_Song_of_Despair'
p3637
asS'916'
p3638
(lp3639
S'train'
p3640
aS'WIKI'
p3641
aS'Heinrich_von_Kleist'
p3642
asS'910'
p3643
(lp3644
S'train'
p3645
aS'WIKI'
p3646
aS'Heat_capacity'
p3647
asS'913'
p3648
(lp3649
S'train'
p3650
aS'WIKI'
p3651
aS'Heimdallr'
p3652
asS'912'
p3653
(lp3654
S'train'
p3655
aS'WIKI'
p3656
aS'Hedda_Gabler'
p3657
asS'1933'
p3658
(lp3659
S'train'
p3660
aS'WIKI'
p3661
aS'Tennessee'
p3662
asS'1935'
p3663
(lp3664
S'train'
p3665
aS'WIKI'
p3666
aS"Tess_of_the_d'Urbervilles"
p3667
asS'1938'
p3668
(lp3669
S'train'
p3670
aS'WIKI'
p3671
aS'Tezcatlipoca'
p3672
asS'847'
p3673
(lp3674
S'train'
p3675
aS'WIKI'
p3676
aS'Greece'
p3677
asS'845'
p3678
(lp3679
S'train'
p3680
aS'WIKI'
p3681
aS'Great_Society'
p3682
asS'843'
p3683
(lp3684
S'train'
p3685
aS'WIKI'
p3686
aS'Great_Fire_of_London'
p3687
asS'841'
p3688
(lp3689
S'train'
p3690
aS'WIKI'
p3691
aS'Great_Expectations'
p3692
asS'848'
p3693
(lp3694
S'train'
p3695
aS'WIKI'
p3696
aS'Green_fluorescent_protein'
p3697
asS'663'
p3698
(lp3699
S'train'
p3700
aS'WIKI'
p3701
aS"Eugene_O'Neill"
p3702
asS'1739'
p3703
(lp3704
S'train'
p3705
aS'WIKI'
p3706
aS'Romulus_and_Remus'
p3707
asS'1731'
p3708
(lp3709
S'train'
p3710
aS'WIKI'
p3711
aS'Roger_Bacon'
p3712
asS'1732'
p3713
(lp3714
S'train'
p3715
aS'WIKI'
p3716
aS'Roland_Barthes'
p3717
asS'1735'
p3718
(lp3719
S'train'
p3720
aS'WIKI'
p3721
aS'Romania'
p3722
asS'1734'
p3723
(lp3724
S'train'
p3725
aS'WIKI'
p3726
aS'Romance_of_the_Three_Kingdoms'
p3727
asS'1736'
p3728
(lp3729
S'train'
p3730
aS'WIKI'
p3731
aS'Rome'
p3732
asS'753'
p3733
(lp3734
S'train'
p3735
aS'WIKI'
p3736
aS'Fyodor_Dostoyevsky'
p3737
asS'752'
p3738
(lp3739
S'train'
p3740
aS'WIKI'
p3741
aS'Futurism'
p3742
asS'751'
p3743
(lp3744
S'train'
p3745
aS'WIKI'
p3746
aS'Fungus'
p3747
asS'757'
p3748
(lp3749
S'train'
p3750
aS'WIKI'
p3751
aS'Gaetano_Donizetti'
p3752
asS'755'
p3753
(lp3754
S'train'
p3755
aS'WIKI'
p3756
aS'Gabriela_(telenovela)'
p3757
asS'754'
p3758
(lp3759
S'train'
p3760
aS'WIKI'
p3761
aS'G_E_Moore'
p3762
asS'759'
p3763
(lp3764
S'train'
p3765
aS'WIKI'
p3766
aS'Gallbladder'
p3767
asS'1595'
p3768
(lp3769
S'train'
p3770
aS'WIKI'
p3771
aS'Photoelectric_effect'
p3772
asS'1594'
p3773
(lp3774
S'train'
p3775
aS'WIKI'
p3776
aS'Phosphorus'
p3777
asS'1591'
p3778
(lp3779
S'train'
p3780
aS'WIKI'
p3781
aS'Phillis_Wheatley'
p3782
asS'1590'
p3783
(lp3784
S'train'
p3785
aS'WIKI'
p3786
aS'Phillips_curve'
p3787
asS'1593'
p3788
(lp3789
S'train'
p3790
aS'WIKI'
p3791
aS'Phonon'
p3792
asS'1598'
p3793
(lp3794
S'train'
p3795
aS'WIKI'
p3796
aS'Piano'
p3797
asS'1025'
p3798
(lp3799
S'train'
p3800
aS'WIKI'
p3801
aS'Isabella_I_of_Castile'
p3802
asS'1024'
p3803
(lp3804
S'train'
p3805
aS'WIKI'
p3806
aS'Isabel_Allende'
p3807
asS'1027'
p3808
(lp3809
S'train'
p3810
aS'WIKI'
p3811
aS'Isenheim_Altarpiece'
p3812
asS'1031'
p3813
(lp3814
S'train'
p3815
aS'WIKI'
p3816
aS'Isomer'
p3817
asS'1021'
p3818
(lp3819
S'train'
p3820
aS'WIKI'
p3821
aS'Iron'
p3822
asS'1020'
p3823
(lp3824
S'train'
p3825
aS'WIKI'
p3826
aS'Ireland'
p3827
asS'1023'
p3828
(lp3829
S'train'
p3830
aS'WIKI'
p3831
aS'Isaac_Newton'
p3832
asS'1029'
p3833
(lp3834
S'train'
p3835
aS'WIKI'
p3836
aS'Ising_model'
p3837
asS'1028'
p3838
(lp3839
S'train'
p3840
aS'WIKI'
p3841
aS'Ishtar'
p3842
asS'1037'
p3843
(lp3844
S'train'
p3845
aS'WIKI'
p3846
aS'Ivan_Turgenev'
p3847
asS'1034'
p3848
(lp3849
S'train'
p3850
aS'WIKI'
p3851
aS'Italo_Calvino'
p3852
asS'1035'
p3853
(lp3854
S'train'
p3855
aS'WIKI'
p3856
aS'Italy'
p3857
asS'605'
p3858
(lp3859
S'train'
p3860
aS'WIKI'
p3861
aS'Eero_Saarinen'
p3862
asS'604'
p3863
(lp3864
S'train'
p3865
aS'WIKI'
p3866
aS'Edwin_Hubble'
p3867
asS'606'
p3868
(lp3869
S'train'
p3870
aS'WIKI'
p3871
aS'Egypt'
p3872
asS'1209'
p3873
(lp3874
S'train'
p3875
aS'WIKI'
p3876
aS'Lake_Tanganyika'
p3877
asS'1208'
p3878
(lp3879
S'train'
p3880
aS'WIKI'
p3881
aS'Lake_Nicaragua'
p3882
asS'603'
p3883
(lp3884
S'train'
p3885
aS'WIKI'
p3886
aS'Edwin_Arlington_Robinson'
p3887
asS'602'
p3888
(lp3889
S'train'
p3890
aS'WIKI'
p3891
aS'Edward_VI_of_England'
p3892
asS'1205'
p3893
(lp3894
S'train'
p3895
aS'WIKI'
p3896
aS'Lake_Chad'
p3897
asS'1204'
p3898
(lp3899
S'train'
p3900
aS'WIKI'
p3901
aS'Lake_Baikal'
p3902
asS'1207'
p3903
(lp3904
S'train'
p3905
aS'WIKI'
p3906
aS'Lake_Malawi'
p3907
asS'1206'
p3908
(lp3909
S'train'
p3910
aS'WIKI'
p3911
aS'Lake_Ladoga'
p3912
asS'609'
p3913
(lp3914
S'train'
p3915
aS'WIKI'
p3916
aS'El_Greco'
p3917
asS'1200'
p3918
(lp3919
S'train'
p3920
aS'WIKI'
p3921
aS'La_traviata'
p3922
asS'1203'
p3923
(lp3924
S'train'
p3925
aS'WIKI'
p3926
aS'Lajos_Kossuth'
p3927
asS'1202'
p3928
(lp3929
S'train'
p3930
aS'WIKI'
p3931
aS'Lagrangian'
p3932
asS'1211'
p3933
(lp3934
S'train'
p3935
aS'WIKI'
p3936
aS'Lake'
p3937
asS'634'
p3938
(lp3939
S'train'
p3940
aS'WIKI'
p3941
aS'Entropy'
p3942
asS'1217'
p3943
(lp3944
S'train'
p3945
aS'WIKI'
p3946
aS'Laplacian_matrix'
p3947
asS'1215'
p3948
(lp3949
S'train'
p3950
aS'WIKI'
p3951
aS'Langston_Hughes'
p3952
asS'1446'
p3953
(lp3954
S'train'
p3955
aS'WIKI'
p3956
aS'Nicolas_Sarkozy'
p3957
asS'1445'
p3958
(lp3959
S'train'
p3960
aS'WIKI'
p3961
aS'Nicolas_Poussin'
p3962
asS'1444'
p3963
(lp3964
S'train'
p3965
aS'WIKI'
p3966
aS'Nicolae_Ceausescu'
p3967
asS'1115'
p3968
(lp3969
S'train'
p3970
aS'WIKI'
p3971
aS'John_Kenneth_Galbraith'
p3972
asS'1442'
p3973
(lp3974
S'train'
p3975
aS'WIKI'
p3976
aS'Niccolo_Machiavelli'
p3977
asS'1117'
p3978
(lp3979
S'train'
p3980
aS'WIKI'
p3981
aS'John_Maynard_Keynes'
p3982
asS'1440'
p3983
(lp3984
S'train'
p3985
aS'WIKI'
p3986
aS'Niacin'
p3987
asS'1118'
p3988
(lp3989
S'train'
p3990
aS'WIKI'
p3991
aS'John_Millington_Synge'
p3992
asS'1448'
p3993
(lp3994
S'train'
p3995
aS'WIKI'
p3996
aS'Niels_Bohr'
p3997
asS'466'
p3998
(lp3999
S'train'
p4000
aS'WIKI'
p4001
aS'Crab_Nebula'
p4002
asS'1357'
p4003
(lp4004
S'train'
p4005
aS'WIKI'
p4006
aS'Memory'
p4007
asS'460'
p4008
(lp4009
S'train'
p4010
aS'WIKI'
p4011
aS'Cosmic_ray'
p4012
asS'489'
p4013
(lp4014
S'train'
p4015
aS'WIKI'
p4016
aS'Cystic_fibrosis'
p4017
asS'487'
p4018
(lp4019
S'train'
p4020
aS'WIKI'
p4021
aS'Cyrus_the_Great'
p4022
asS'486'
p4023
(lp4024
S'train'
p4025
aS'WIKI'
p4026
aS'Cyrano_de_Bergerac'
p4027
asS'485'
p4028
(lp4029
S'train'
p4030
aS'WIKI'
p4031
aS'Cyprus'
p4032
asS'484'
p4033
(lp4034
S'train'
p4035
aS'WIKI'
p4036
aS'Cymbeline'
p4037
asS'483'
p4038
(lp4039
S'train'
p4040
aS'WIKI'
p4041
aS'Cycloid'
p4042
asS'482'
p4043
(lp4044
S'train'
p4045
aS'WIKI'
p4046
aS'Cyclohexane'
p4047
asS'481'
p4048
(lp4049
S'train'
p4050
aS'WIKI'
p4051
aS'Cyclic_adenosine_monophosphate'
p4052
asS'695'
p4053
(lp4054
S'train'
p4055
aS'WIKI'
p4056
aS'First_Crusade'
p4057
asS'198'
p4058
(lp4059
S'train'
p4060
aS'WIKI'
p4061
aS'Babur'
p4062
asS'195'
p4063
(lp4064
S'train'
p4065
aS'WIKI'
p4066
aS'Aztec_Empire'
p4067
asS'194'
p4068
(lp4069
S'train'
p4070
aS'WIKI'
p4071
aS'Azide'
p4072
asS'197'
p4073
(lp4074
S'train'
p4075
aS'WIKI'
p4076
aS'Babbitt_(novel)'
p4077
asS'196'
p4078
(lp4079
S'train'
p4080
aS'WIKI'
p4081
aS'Aztec'
p4082
asS'191'
p4083
(lp4084
S'train'
p4085
aS'WIKI'
p4086
aS'Auxin'
p4087
asS'190'
p4088
(lp4089
S'train'
p4090
aS'WIKI'
p4091
aS'Austria'
p4092
asS'193'
p4093
(lp4094
S'train'
p4095
aS'WIKI'
p4096
aS'Axum'
p4097
asS'1106'
p4098
(lp4099
S'train'
p4100
aS'WIKI'
p4101
aS'John_Dewey'
p4102
asS'1103'
p4103
(lp4104
S'train'
p4105
aS'WIKI'
p4106
aS'John_Coltrane'
p4107
asS'1101'
p4108
(lp4109
S'train'
p4110
aS'WIKI'
p4111
aS'John_Calvin'
p4112
asS'902'
p4113
(lp4114
S'train'
p4115
aS'WIKI'
p4116
aS'Hartford_Convention'
p4117
asS'900'
p4118
(lp4119
S'train'
p4120
aS'WIKI'
p4121
aS'Harry_S_Truman'
p4122
asS'1848'
p4123
(lp4124
S'train'
p4125
aS'WIKI'
p4126
aS'Sophocles'
p4127
asS'906'
p4128
(lp4129
S'train'
p4130
aS'WIKI'
p4131
aS'Haymarket_affair'
p4132
asS'907'
p4133
(lp4134
S'train'
p4135
aS'WIKI'
p4136
aS'Heap_(data_structure)'
p4137
asS'904'
p4138
(lp4139
S'train'
p4140
aS'WIKI'
p4141
aS'Hathor'
p4142
asS'905'
p4143
(lp4144
S'train'
p4145
aS'WIKI'
p4146
aS'Hawaii'
p4147
asS'420'
p4148
(lp4149
S'train'
p4150
aS'WIKI'
p4151
aS'Clayton_Antitrust_Act'
p4152
asS'908'
p4153
(lp4154
S'train'
p4155
aS'WIKI'
p4156
aS'Heart_of_Darkness'
p4157
asS'909'
p4158
(lp4159
S'train'
p4160
aS'WIKI'
p4161
aS'Heartbreak_House'
p4162
asS'1847'
p4163
(lp4164
S'train'
p4165
aS'WIKI'
p4166
aS'Sons_and_Lovers'
p4167
asS'2164'
p4168
(lp4169
S'train'
p4170
aS'WIKI'
p4171
aS'Tree'
p4172
asS'2167'
p4173
(lp4174
S'train'
p4175
aS'WIKI'
p4176
aS'Triangle'
p4177
asS'2166'
p4178
(lp4179
S'train'
p4180
aS'WIKI'
p4181
aS'Triangle_Shirtwaist_Factory_fire'
p4182
asS'2160'
p4183
(lp4184
S'train'
p4185
aS'WIKI'
p4186
aS'Treaty_of_Versailles'
p4187
asS'2163'
p4188
(lp4189
S'train'
p4190
aS'WIKI'
p4191
aS'Tree_(graph_theory)'
p4192
asS'2162'
p4193
(lp4194
S'train'
p4195
aS'WIKI'
p4196
aS'Tree_(data_structure)'
p4197
asS'1908'
p4198
(lp4199
S'train'
p4200
aS'WIKI'
p4201
aS'Symphony_No_8_(Mahler)'
p4202
asS'1909'
p4203
(lp4204
S'train'
p4205
aS'WIKI'
p4206
aS'Symphony_No_9_(Beethoven)'
p4207
asS'1904'
p4208
(lp4209
S'train'
p4210
aS'WIKI'
p4211
aS'Sylvia_Plath'
p4212
asS'1905'
p4213
(lp4214
S'train'
p4215
aS'WIKI'
p4216
aS'Symphony_No_1_(Mahler)'
p4217
asS'1902'
p4218
(lp4219
S'train'
p4220
aS'WIKI'
p4221
aS'Switzerland'
p4222
asS'1903'
p4223
(lp4224
S'train'
p4225
aS'WIKI'
p4226
aS'Sword'
p4227
asS'1901'
p4228
(lp4229
S'train'
p4230
aS'WIKI'
p4231
aS'Sweden'
p4232
asS'854'
p4233
(lp4234
S'train'
p4235
aS'WIKI'
p4236
aS'Group_(mathematics)'
p4237
asS'856'
p4238
(lp4239
S'train'
p4240
aS'WIKI'
p4241
aS'Guatemala'
p4242
asS'857'
p4243
(lp4244
S'train'
p4245
aS'WIKI'
p4246
aS'Guelphs_and_Ghibellines'
p4247
asS'850'
p4248
(lp4249
S'train'
p4250
aS'WIKI'
p4251
aS'Greenland'
p4252
asS'851'
p4253
(lp4254
S'train'
p4255
aS'WIKI'
p4256
aS"Gresham's_law"
p4257
asS'853'
p4258
(lp4259
S'train'
p4260
aS'WIKI'
p4261
aS'Gross_domestic_product'
p4262
asS'858'
p4263
(lp4264
S'train'
p4265
aS'WIKI'
p4266
aS'Guernica_(painting)'
p4267
asS'859'
p4268
(lp4269
S'train'
p4270
aS'WIKI'
p4271
aS"Gulliver's_Travels"
p4272
asS'6'
(lp4273
S'train'
p4274
aS'WIKI'
p4275
aS'7_(number)'
p4276
asS'743'
p4277
(lp4278
S'train'
p4279
aS'WIKI'
p4280
aS'Friedrich_Nietzsche'
p4281
asS'744'
p4282
(lp4283
S'train'
p4284
aS'WIKI'
p4285
aS'Friedrich_Schiller'
p4286
asS'745'
p4287
(lp4288
S'train'
p4289
aS'WIKI'
p4290
aS'Fronde'
p4291
asS'746'
p4292
(lp4293
S'train'
p4294
aS'WIKI'
p4295
aS'Fugacity'
p4296
asS'747'
p4297
(lp4298
S'train'
p4299
aS'WIKI'
p4300
aS'Fugue'
p4301
asS'748'
p4302
(lp4303
S'train'
p4304
aS'WIKI'
p4305
aS'Fullerene'
p4306
asS'749'
p4307
(lp4308
S'train'
p4309
aS'WIKI'
p4310
aS'Fundamental_attribution_error'
p4311
asS'1050'
p4312
(lp4313
S'train'
p4314
aS'WIKI'
p4315
aS'Jahn-Teller_effect'
p4316
asS'1051'
p4317
(lp4318
S'train'
p4319
aS'WIKI'
p4320
aS'Jainism'
p4321
asS'1054'
p4322
(lp4323
S'train'
p4324
aS'WIKI'
p4325
aS'James_Abbott_McNeill_Whistler'
p4326
asS'1055'
p4327
(lp4328
S'train'
p4329
aS'WIKI'
p4330
aS'James_Baldwin'
p4331
asS'1056'
p4332
(lp4333
S'train'
p4334
aS'WIKI'
p4335
aS'James_Clerk_Maxwell'
p4336
asS'1057'
p4337
(lp4338
S'train'
p4339
aS'WIKI'
p4340
aS'James_Fenimore_Cooper'
p4341
asS'1058'
p4342
(lp4343
S'train'
p4344
aS'WIKI'
p4345
aS'James_G_Blaine'
p4346
asS'1059'
p4347
(lp4348
S'train'
p4349
aS'WIKI'
p4350
aS'James_George_Frazer'
p4351
asS'1696'
p4352
(lp4353
S'train'
p4354
aS'WIKI'
p4355
aS'Rene_Descartes'
p4356
asS'1694'
p4357
(lp4358
S'train'
p4359
aS'WIKI'
p4360
aS'Refractive_index'
p4361
asS'1692'
p4362
(lp4363
S'train'
p4364
aS'WIKI'
p4365
aS'Reduction_(chemistry)'
p4366
asS'1693'
p4367
(lp4368
S'train'
p4369
aS'WIKI'
p4370
aS'Reflection_(physics)'
p4371
asS'1690'
p4372
(lp4373
S'train'
p4374
aS'WIKI'
p4375
aS'Red_Sea'
p4376
asS'1698'
p4377
(lp4378
S'train'
p4379
aS'WIKI'
p4380
aS'Resonance'
p4381
asS'1699'
p4382
(lp4383
S'train'
p4384
aS'WIKI'
p4385
aS'Retina'
p4386
asS'1278'
p4387
(lp4388
S'train'
p4389
aS'WIKI'
p4390
aS'Ludwig_Wittgenstein'
p4391
asS'1279'
p4392
(lp4393
S'train'
p4394
aS'WIKI'
p4395
aS'Luigi_Pirandello'
p4396
asS'618'
p4397
(lp4398
S'train'
p4399
aS'WIKI'
p4400
aS'Elliptical_galaxy'
p4401
asS'714'
p4402
(lp4403
S'train'
p4404
aS'WIKI'
p4405
aS'Francis_Marion'
p4406
asS'612'
p4407
(lp4408
S'train'
p4409
aS'WIKI'
p4410
aS'Electric_field'
p4411
asS'1797'
p4412
(lp4413
S'train'
p4414
aS'WIKI'
p4415
aS'Set_(mythology)'
p4416
asS'610'
p4417
(lp4418
S'train'
p4419
aS'WIKI'
p4420
aS'El_Salvador'
p4421
asS'1273'
p4422
(lp4423
S'train'
p4424
aS'WIKI'
p4425
aS'Louis_XV_of_France'
p4426
asS'616'
p4427
(lp4428
S'train'
p4429
aS'WIKI'
p4430
aS'Elegy_Written_in_a_Country_Churchyard'
p4431
asS'617'
p4432
(lp4433
S'train'
p4434
aS'WIKI'
p4435
aS'Elizabeth_I_of_England'
p4436
asS'1796'
p4437
(lp4438
S'train'
p4439
aS'WIKI'
p4440
aS'Serotonin'
p4441
asS'1794'
p4442
(lp4443
S'train'
p4444
aS'WIKI'
p4445
aS'Sergei_Prokofiev'
p4446
asS'1472'
p4447
(lp4448
S'train'
p4449
aS'WIKI'
p4450
aS'O_Henry'
p4451
asS'1470'
p4452
(lp4453
S'train'
p4454
aS'WIKI'
p4455
aS'Nuclear_fusion'
p4456
asS'1471'
p4457
(lp4458
S'train'
p4459
aS'WIKI'
p4460
aS'Nuclear_magnetic_resonance'
p4461
asS'1476'
p4462
(lp4463
S'train'
p4464
aS'WIKI'
p4465
aS'Ode_to_a_Nightingale'
p4466
asS'1477'
p4467
(lp4468
S'train'
p4469
aS'WIKI'
p4470
aS'Odin'
p4471
asS'1478'
p4472
(lp4473
S'train'
p4474
aS'WIKI'
p4475
aS'Oedipus'
p4476
asS'1304'
p4477
(lp4478
S'train'
p4479
aS'WIKI'
p4480
aS'Mamluk'
p4481
asS'1305'
p4482
(lp4483
S'train'
p4484
aS'WIKI'
p4485
aS'Manichaeism'
p4486
asS'1306'
p4487
(lp4488
S'train'
p4489
aS'WIKI'
p4490
aS'Manitoba'
p4491
asS'1307'
p4492
(lp4493
S'train'
p4494
aS'WIKI'
p4495
aS'Mantle_(geology)'
p4496
asS'1302'
p4497
(lp4498
S'train'
p4499
aS'WIKI'
p4500
aS'Malaysia'
p4501
asS'1309'
p4502
(lp4503
S'train'
p4504
aS'WIKI'
p4505
aS'Manuel_de_Falla'
p4506
asS'498'
p4507
(lp4508
S'train'
p4509
aS'WIKI'
p4510
aS'Daniel'
p4511
asS'499'
p4512
(lp4513
S'train'
p4514
aS'WIKI'
p4515
aS'Danube'
p4516
asS'494'
p4517
(lp4518
S'train'
p4519
aS'WIKI'
p4520
aS'Dangerous_Liaisons'
p4521
asS'495'
p4522
(lp4523
S'train'
p4524
aS'WIKI'
p4525
aS'Daniel_Defoe'
p4526
asS'497'
p4527
(lp4528
S'train'
p4529
aS'WIKI'
p4530
aS'Daniel_Webster'
p4531
asS'490'
p4532
(lp4533
S'train'
p4534
aS'WIKI'
p4535
aS'Cytokine'
p4536
asS'491'
p4537
(lp4538
S'train'
p4539
aS'WIKI'
p4540
aS'Czech_Republic'
p4541
asS'492'
p4542
(lp4543
S'train'
p4544
aS'WIKI'
p4545
aS'D_H_Lawrence'
p4546
asS'493'
p4547
(lp4548
S'train'
p4549
aS'WIKI'
p4550
aS'Dahomey'
p4551
asS'24'
p4552
(lp4553
S'train'
p4554
aS'WIKI'
p4555
aS'A_Sunday_Afternoon_on_the_Island_of_La_Grande_Jatte'
p4556
asS'25'
p4557
(lp4558
S'train'
p4559
aS'WIKI'
p4560
aS'A_Tale_of_Two_Cities'
p4561
asS'20'
p4562
(lp4563
S'train'
p4564
aS'WIKI'
p4565
aS'A_Room_with_a_View'
p4566
asS'21'
p4567
(lp4568
S'train'
p4569
aS'WIKI'
p4570
aS'A_Season_in_Hell'
p4571
asS'22'
p4572
(lp4573
S'train'
p4574
aS'WIKI'
p4575
aS'A_Shropshire_Lad'
p4576
asS'23'
p4577
(lp4578
S'train'
p4579
aS'WIKI'
p4580
aS'A_Streetcar_Named_Desire_(play)'
p4581
asS'28'
p4582
(lp4583
S'train'
p4584
aS'WIKI'
p4585
aS'A_J_Ayer'
p4586
asS'7'
(lp4587
S'train'
p4588
aS'WIKI'
p4589
aS'A_Bend_in_the_River'
p4590
asS'2288'
p4591
(lp4592
S'train'
p4593
aS'WIKI'
p4594
aS'William_Jennings_Bryan'
p4595
asS'2289'
p4596
(lp4597
S'train'
p4598
aS'WIKI'
p4599
aS'William_Makepeace_Thackeray'
p4600
asS'2281'
p4601
(lp4602
S'train'
p4603
aS'WIKI'
p4604
aS'William_Faulkner'
p4605
asS'2282'
p4606
(lp4607
S'train'
p4608
aS'WIKI'
p4609
aS'William_Golding'
p4610
asS'2283'
p4611
(lp4612
S'train'
p4613
aS'WIKI'
p4614
aS'William_Graham_Sumner'
p4615
asS'2284'
p4616
(lp4617
S'train'
p4618
aS'WIKI'
p4619
aS'William_H_Seward'
p4620
asS'2056'
p4621
(lp4622
S'train'
p4623
aS'WIKI'
p4624
aS'The_Republic_(Plato)'
p4625
asS'1087'
p4626
(lp4627
S'train'
p4628
aS'WIKI'
p4629
aS'Joan_Miro'
p4630
asS'1876'
p4631
(lp4632
S'train'
p4633
aS'WIKI'
p4634
aS'Steppenwolf_(novel)'
p4635
asS'1877'
p4636
(lp4637
S'train'
p4638
aS'WIKI'
p4639
aS'Stoicism'
p4640
asS'1874'
p4641
(lp4642
S'train'
p4643
aS'WIKI'
p4644
aS'Stephen_Crane'
p4645
asS'1084'
p4646
(lp4647
S'train'
p4648
aS'WIKI'
p4649
aS'Jeremy_Bentham'
p4650
asS'1872'
p4651
(lp4652
S'train'
p4653
aS'WIKI'
p4654
aS'Stendhal'
p4655
asS'1873'
p4656
(lp4657
S'train'
p4658
aS'WIKI'
p4659
aS'Stephen_A_Douglas'
p4660
asS'1870'
p4661
(lp4662
S'train'
p4663
aS'WIKI'
p4664
aS'State_of_Franklin'
p4665
asS'1083'
p4666
(lp4667
S'train'
p4668
aS'WIKI'
p4669
aS"Jehovah's_Witnesses"
p4670
asS'1878'
p4671
(lp4672
S'train'
p4673
aS'WIKI'
p4674
aS'Stomach'
p4675
asS'1879'
p4676
(lp4677
S'train'
p4678
aS'WIKI'
p4679
aS'Stratosphere'
p4680
asS'977'
p4681
(lp4682
S'train'
p4683
aS'WIKI'
p4684
aS'Huitzilopochtli'
p4685
asS'975'
p4686
(lp4687
S'train'
p4688
aS'WIKI'
p4689
aS'Hugh_Capet'
p4690
asS'974'
p4691
(lp4692
S'train'
p4693
aS'WIKI'
p4694
aS'Huey_Long'
p4695
asS'973'
p4696
(lp4697
S'train'
p4698
aS'WIKI'
p4699
aS'Howl'
p4700
asS'972'
p4701
(lp4702
S'train'
p4703
aS'WIKI'
p4704
aS'Howards_End'
p4705
asS'971'
p4706
(lp4707
S'train'
p4708
aS'WIKI'
p4709
aS'Horus'
p4710
asS'970'
p4711
(lp4712
S'train'
p4713
aS'WIKI'
p4714
aS'Horse'
p4715
asS'1080'
p4716
(lp4717
S'train'
p4718
aS'WIKI'
p4719
aS'Jean-Paul_Sartre'
p4720
asS'979'
p4721
(lp4722
S'train'
p4723
aS'WIKI'
p4724
aS'Humbert_Humbert'
p4725
asS'978'
p4726
(lp4727
S'train'
p4728
aS'WIKI'
p4729
aS'Huldrych_Zwingli'
p4730
asS'2118'
p4731
(lp4732
S'train'
p4733
aS'WIKI'
p4734
aS'Thoth'
p4735
asS'183'
p4736
(lp4737
S'train'
p4738
aS'WIKI'
p4739
aS'August_Wilson'
p4740
asS'180'
p4741
(lp4742
S'train'
p4743
aS'WIKI'
p4744
aS'Aubrey_Beardsley'
p4745
asS'181'
p4746
(lp4747
S'train'
p4748
aS'WIKI'
p4749
aS'Auger_effect'
p4750
asS'187'
p4751
(lp4752
S'train'
p4753
aS'WIKI'
p4754
aS'Augustine_of_Hippo'
p4755
asS'185'
p4756
(lp4757
S'train'
p4758
aS'WIKI'
p4759
aS'Auguste_Rodin'
p4760
asS'188'
p4761
(lp4762
S'train'
p4763
aS'WIKI'
p4764
aS'Aunt_Julia_and_the_Scriptwriter'
p4765
asS'2113'
p4766
(lp4767
S'train'
p4768
aS'WIKI'
p4769
aS'Thomas_Pynchon'
p4770
asS'2114'
p4771
(lp4772
S'train'
p4773
aS'WIKI'
p4774
aS'Thomas_Robert_Malthus'
p4775
asS'2116'
p4776
(lp4777
S'train'
p4778
aS'WIKI'
p4779
aS'Thornton_Wilder'
p4780
asS'2117'
p4781
(lp4782
S'train'
p4783
aS'WIKI'
p4784
aS'Thorstein_Veblen'
p4785
asS'1918'
p4786
(lp4787
S'train'
p4788
aS'WIKI'
p4789
aS'Taliesin'
p4790
asS'1911'
p4791
(lp4792
S'train'
p4793
aS'WIKI'
p4794
aS'Syracuse_Sicily'
p4795
asS'1910'
p4796
(lp4797
S'train'
p4798
aS'WIKI'
p4799
aS'Synchrotron_radiation'
p4800
asS'1912'
p4801
(lp4802
S'train'
p4803
aS'WIKI'
p4804
aS'Syria'
p4805
asS'1915'
p4806
(lp4807
S'train'
p4808
aS'WIKI'
p4809
aS'Taiping_Rebellion'
p4810
asS'1914'
p4811
(lp4812
S'train'
p4813
aS'WIKI'
p4814
aS'T_S_Eliot'
p4815
asS'1917'
p4816
(lp4817
S'train'
p4818
aS'WIKI'
p4819
aS'Talcott_Parsons'
p4820
asS'1916'
p4821
(lp4822
S'train'
p4823
aS'WIKI'
p4824
aS'Taiwan'
p4825
asS'869'
p4826
(lp4827
S'train'
p4828
aS'WIKI'
p4829
aS'Gustave_Courbet'
p4830
asS'868'
p4831
(lp4832
S'train'
p4833
aS'WIKI'
p4834
aS'Gustav_Mahler'
p4835
asS'861'
p4836
(lp4837
S'train'
p4838
aS'WIKI'
p4839
aS'Gunpowder_Plot'
p4840
asS'860'
p4841
(lp4842
S'train'
p4843
aS'WIKI'
p4844
aS'Gunnar_Myrdal'
p4845
asS'863'
p4846
(lp4847
S'train'
p4848
aS'WIKI'
p4849
aS'Gupta_Empire'
p4850
asS'865'
p4851
(lp4852
S'train'
p4853
aS'WIKI'
p4854
aS'Guru_Nanak'
p4855
asS'2024'
p4856
(lp4857
S'train'
p4858
aS'WIKI'
p4859
aS'The_Marriage_of_Figaro'
p4860
asS'2025'
p4861
(lp4862
S'train'
p4863
aS'WIKI'
p4864
aS'The_Master_and_Margarita'
p4865
asS'2026'
p4866
(lp4867
S'train'
p4868
aS'WIKI'
p4869
aS'The_Master_Builder'
p4870
asS'2020'
p4871
(lp4872
S'train'
p4873
aS'WIKI'
p4874
aS'The_Lottery'
p4875
asS'2021'
p4876
(lp4877
S'train'
p4878
aS'WIKI'
p4879
aS'The_Love_Song_of_J_Alfred_Prufrock'
p4880
asS'2022'
p4881
(lp4882
S'train'
p4883
aS'WIKI'
p4884
aS'The_Magic_Flute'
p4885
asS'2023'
p4886
(lp4887
S'train'
p4888
aS'WIKI'
p4889
aS'The_Magic_Mountain'
p4890
asS'2028'
p4891
(lp4892
S'train'
p4893
aS'WIKI'
p4894
aS'The_Merry_Wives_of_Windsor'
p4895
asS'2029'
p4896
(lp4897
S'train'
p4898
aS'WIKI'
p4899
aS'The_Metamorphosis'
p4900
asS'883'
p4901
(lp4902
S'train'
p4903
aS'WIKI'
p4904
aS'Hajj'
p4905
asS'882'
p4906
(lp4907
S'train'
p4908
aS'WIKI'
p4909
aS'Haitian_Vodou'
p4910
asS'887'
p4911
(lp4912
S'train'
p4913
aS'WIKI'
p4914
aS'Hamlet'
p4915
asS'886'
p4916
(lp4917
S'train'
p4918
aS'WIKI'
p4919
aS'Hamiltonian_(quantum_mechanics)'
p4920
asS'885'
p4921
(lp4922
S'train'
p4923
aS'WIKI'
p4924
aS'Halogen'
p4925
asS'884'
p4926
(lp4927
S'train'
p4928
aS'WIKI'
p4929
aS'Hall_effect'
p4930
asS'774'
p4931
(lp4932
S'train'
p4933
aS'WIKI'
p4934
aS'Georg_Wilhelm_Friedrich_Hegel'
p4935
asS'777'
p4936
(lp4937
S'train'
p4938
aS'WIKI'
p4939
aS'George_Bernard_Shaw'
p4940
asS'776'
p4941
(lp4942
S'train'
p4943
aS'WIKI'
p4944
aS'George_Berkeley'
p4945
asS'771'
p4946
(lp4947
S'train'
p4948
aS'WIKI'
p4949
aS'Genghis_Khan'
p4950
asS'773'
p4951
(lp4952
S'train'
p4953
aS'WIKI'
p4954
aS'Georg_Simmel'
p4955
asS'772'
p4956
(lp4957
S'train'
p4958
aS'WIKI'
p4959
aS'Geoffrey_Chaucer'
p4960
asS'779'
p4961
(lp4962
S'train'
p4963
aS'WIKI'
p4964
aS'George_Eliot'
p4965
asS'778'
p4966
(lp4967
S'train'
p4968
aS'WIKI'
p4969
aS'George_Chapman'
p4970
asS'77'
p4971
(lp4972
S'train'
p4973
aS'WIKI'
p4974
aS'Alexander_Pope'
p4975
asS'75'
p4976
(lp4977
S'train'
p4978
aS'WIKI'
p4979
aS'Alexander_Hamilton'
p4980
asS'74'
p4981
(lp4982
S'train'
p4983
aS'WIKI'
p4984
aS'Aleksandr_Solzhenitsyn'
p4985
asS'73'
p4986
(lp4987
S'train'
p4988
aS'WIKI'
p4989
aS'Aldous_Huxley'
p4990
asS'72'
p4991
(lp4992
S'train'
p4993
aS'WIKI'
p4994
aS'Aldosterone'
p4995
asS'71'
p4996
(lp4997
S'train'
p4998
aS'WIKI'
p4999
aS'Aldol_condensation'
p5000
asS'79'
p5001
(lp5002
S'train'
p5003
aS'WIKI'
p5004
aS'Alexander_the_Great'
p5005
asS'78'
p5006
(lp5007
S'train'
p5008
aS'WIKI'
p5009
aS'Alexander_Pushkin'
p5010
asS'1040'
p5011
(lp5012
S'train'
p5013
aS'WIKI'
p5014
aS'J_D_Salinger'
p5015
asS'1047'
p5016
(lp5017
S'train'
p5018
aS'WIKI'
p5019
aS'Jacques_Derrida'
p5020
asS'1046'
p5021
(lp5022
S'train'
p5023
aS'WIKI'
p5024
aS'Jacquerie'
p5025
asS'1044'
p5026
(lp5027
S'train'
p5028
aS'WIKI'
p5029
aS'Jackson_Pollock'
p5030
asS'1048'
p5031
(lp5032
S'train'
p5033
aS'WIKI'
p5034
aS'Jacques_Offenbach'
p5035
asS'1681'
p5036
(lp5037
S'train'
p5038
aS'WIKI'
p5039
aS'Raman_scattering'
p5040
asS'1682'
p5041
(lp5042
S'train'
p5043
aS'WIKI'
p5044
aS'Ramesses_II'
p5045
asS'1685'
p5046
(lp5047
S'train'
p5048
aS'WIKI'
p5049
aS'Rastafari_movement'
p5050
asS'1684'
p5051
(lp5052
S'train'
p5053
aS'WIKI'
p5054
aS'Raphael'
p5055
asS'1687'
p5056
(lp5057
S'train'
p5058
aS'WIKI'
p5059
aS'Recursion'
p5060
asS'1686'
p5061
(lp5062
S'train'
p5063
aS'WIKI'
p5064
aS'Ray_Bradbury'
p5065
asS'1689'
p5066
(lp5067
S'train'
p5068
aS'WIKI'
p5069
aS'Red_Queen_hypothesis'
p5070
asS'1688'
p5071
(lp5072
S'train'
p5073
aS'WIKI'
p5074
aS'Red_blood_cell'
p5075
asS'1269'
p5076
(lp5077
S'train'
p5078
aS'WIKI'
p5079
aS'Louis_Riel'
p5080
asS'669'
p5081
(lp5082
S'train'
p5083
aS'WIKI'
p5084
aS'Eye'
p5085
asS'668'
p5086
(lp5087
S'train'
p5088
aS'WIKI'
p5089
aS'Externality'
p5090
asS'1263'
p5091
(lp5092
S'train'
p5093
aS'WIKI'
p5094
aS'Lord_of_the_Flies'
p5095
asS'1262'
p5096
(lp5097
S'train'
p5098
aS'WIKI'
p5099
aS'Looking_Backward'
p5100
asS'665'
p5101
(lp5102
S'train'
p5103
aS'WIKI'
p5104
aS'Euripides'
p5105
asS'664'
p5106
(lp5107
S'train'
p5108
aS'WIKI'
p5109
aS'Euler_characteristic'
p5110
asS'1267'
p5111
(lp5112
S'train'
p5113
aS'WIKI'
p5114
aS'Louis_Armstrong'
p5115
asS'662'
p5116
(lp5117
S'train'
p5118
aS'WIKI'
p5119
aS'Eugene_Ionesco'
p5120
asS'1264'
p5121
(lp5122
S'train'
p5123
aS'WIKI'
p5124
aS'Lorenzo_Ghiberti'
p5125
asS'1504'
p5126
(lp5127
S'train'
p5128
aS'WIKI'
p5129
aS'Orlando_Furioso'
p5130
asS'1468'
p5131
(lp5132
S'train'
p5133
aS'WIKI'
p5134
aS'Notes_from_Underground'
p5135
asS'1464'
p5136
(lp5137
S'train'
p5138
aS'WIKI'
p5139
aS'Noble_gas'
p5140
asS'1461'
p5141
(lp5142
S'train'
p5143
aS'WIKI'
p5144
aS'No_Exit'
p5145
asS'1463'
p5146
(lp5147
S'train'
p5148
aS'WIKI'
p5149
aS'Noam_Chomsky'
p5150
asS'1462'
p5151
(lp5152
S'train'
p5153
aS'WIKI'
p5154
aS'No_Longer_at_Ease'
p5155
asS'1317'
p5156
(lp5157
S'train'
p5158
aS'WIKI'
p5159
aS'Marcel_Mauss'
p5160
asS'1314'
p5161
(lp5162
S'train'
p5163
aS'WIKI'
p5164
aS'Marbury_v_Madison'
p5165
asS'1313'
p5166
(lp5167
S'train'
p5168
aS'WIKI'
p5169
aS'Mapp_v_Ohio'
p5170
asS'1312'
p5171
(lp5172
S'train'
p5173
aS'WIKI'
p5174
aS'Maori_people'
p5175
asS'319'
p5176
(lp5177
S'train'
p5178
aS'WIKI'
p5179
aS'Cairo'
p5180
asS'318'
p5181
(lp5182
S'train'
p5183
aS'WIKI'
p5184
aS'Cain'
p5185
asS'312'
p5186
(lp5187
S'train'
p5188
aS'WIKI'
p5189
aS'Burma'
p5190
asS'311'
p5191
(lp5192
S'train'
p5193
aS'WIKI'
p5194
aS'Bulgaria'
p5195
asS'310'
p5196
(lp5197
S'train'
p5198
aS'WIKI'
p5199
aS'Buenos_Aires'
p5200
asS'317'
p5201
(lp5202
S'train'
p5203
aS'WIKI'
p5204
aS'Caenorhabditis_elegans'
p5205
asS'316'
p5206
(lp5207
S'train'
p5208
aS'WIKI'
p5209
aS'Cadmus'
p5210
asS'315'
p5211
(lp5212
S'train'
p5213
aS'WIKI'
p5214
aS'Cache_(computing)'
p5215
asS'1337'
p5216
(lp5217
S'train'
p5218
aS'WIKI'
p5219
aS'Mass'
p5220
asS'1336'
p5221
(lp5222
S'train'
p5223
aS'WIKI'
p5224
aS'Mass_spectrometry'
p5225
asS'1331'
p5226
(lp5227
S'train'
p5228
aS'WIKI'
p5229
aS'Martial'
p5230
asS'1332'
p5231
(lp5232
S'train'
p5233
aS'WIKI'
p5234
aS'Martin_Heidegger'
p5235
asS'2298'
p5236
(lp5237
S'train'
p5238
aS'WIKI'
p5239
aS'Winesburg_Ohio_(novel)'
p5240
asS'2293'
p5241
(lp5242
S'train'
p5243
aS'WIKI'
p5244
aS'William_the_Conqueror'
p5245
asS'2292'
p5246
(lp5247
S'train'
p5248
aS'WIKI'
p5249
aS'William_Shakespeare'
p5250
asS'2290'
p5251
(lp5252
S'train'
p5253
aS'WIKI'
p5254
aS'William_McKinley'
p5255
asS'2296'
p5256
(lp5257
S'train'
p5258
aS'WIKI'
p5259
aS'William_Wordsworth'
p5260
asS'2295'
p5261
(lp5262
S'train'
p5263
aS'WIKI'
p5264
aS'William_Walton'
p5265
asS'632'
p5266
(lp5267
S'train'
p5268
aS'WIKI'
p5269
aS'Enrico_Fermi'
p5270
asS'1863'
p5271
(lp5272
S'train'
p5273
aS'WIKI'
p5274
aS'Sponge'
p5275
asS'1865'
p5276
(lp5277
S'train'
p5278
aS'WIKI'
p5279
aS'Sri_Lanka'
p5280
asS'1864'
p5281
(lp5282
S'train'
p5283
aS'WIKI'
p5284
aS'Spoon_River_Anthology'
p5285
asS'1867'
p5286
(lp5287
S'train'
p5288
aS'WIKI'
p5289
aS'Stanford_prison_experiment'
p5290
asS'1869'
p5291
(lp5292
S'train'
p5293
aS'WIKI'
p5294
aS'Stark_effect'
p5295
asS'1868'
p5296
(lp5297
S'train'
p5298
aS'WIKI'
p5299
aS'Stanley_Milgram'
p5300
asS'964'
p5301
(lp5302
S'train'
p5303
aS'WIKI'
p5304
aS'Holi'
p5305
asS'965'
p5306
(lp5307
S'train'
p5308
aS'WIKI'
p5309
aS'Homestead_Strike'
p5310
asS'966'
p5311
(lp5312
S'train'
p5313
aS'WIKI'
p5314
aS'Honduras'
p5315
asS'967'
p5316
(lp5317
S'train'
p5318
aS'WIKI'
p5319
aS"Hooke's_law"
p5320
asS'960'
p5321
(lp5322
S'train'
p5323
aS'WIKI'
p5324
aS'HIV'
p5325
asS'961'
p5326
(lp5327
S'train'
p5328
aS'WIKI'
p5329
aS'Hofmann_elimination'
p5330
asS'962'
p5331
(lp5332
S'train'
p5333
aS'WIKI'
p5334
aS'Hokkaido'
p5335
asS'963'
p5336
(lp5337
S'train'
p5338
aS'WIKI'
p5339
aS'Holden_Caulfield'
p5340
asS'968'
p5341
(lp5342
S'train'
p5343
aS'WIKI'
p5344
aS'Horace_Greeley'
p5345
asS'969'
p5346
(lp5347
S'train'
p5348
aS'WIKI'
p5349
aS'Horace'
p5350
asS'2101'
p5351
(lp5352
S'train'
p5353
aS'WIKI'
p5354
aS"Thirty_Years'_War"
p5355
asS'2106'
p5356
(lp5357
S'train'
p5358
aS'WIKI'
p5359
aS'Thomas_Eakins'
p5360
asS'1537'
p5361
(lp5362
S'train'
p5363
aS'WIKI'
p5364
aS'Paris_Commune'
p5365
asS'1536'
p5366
(lp5367
S'train'
p5368
aS'WIKI'
p5369
aS'Paramagnetism'
p5370
asS'876'
p5371
(lp5372
S'train'
p5373
aS'WIKI'
p5374
aS'Hades'
p5375
asS'875'
p5376
(lp5377
S'train'
p5378
aS'WIKI'
p5379
aS'Haber_process'
p5380
asS'872'
p5381
(lp5382
S'train'
p5383
aS'WIKI'
p5384
aS'Guy_de_Maupassant'
p5385
asS'1535'
p5386
(lp5387
S'train'
p5388
aS'WIKI'
p5389
aS'Paraguayan_War'
p5390
asS'870'
p5391
(lp5392
S'train'
p5393
aS'WIKI'
p5394
aS'Gustave_Flaubert'
p5395
asS'871'
p5396
(lp5397
S'train'
p5398
aS'WIKI'
p5399
aS'Gustavus_Adolphus_of_Sweden'
p5400
asS'2037'
p5401
(lp5402
S'train'
p5403
aS'WIKI'
p5404
aS'The_Overcoat'
p5405
asS'2036'
p5406
(lp5407
S'train'
p5408
aS'WIKI'
p5409
aS'The_Open_Society_and_Its_Enemies'
p5410
asS'2035'
p5411
(lp5412
S'train'
p5413
aS'WIKI'
p5414
aS'The_Octopus:_A_Story_of_California'
p5415
asS'1534'
p5416
(lp5417
S'train'
p5418
aS'WIKI'
p5419
aS'Paraguay'
p5420
asS'2033'
p5421
(lp5422
S'train'
p5423
aS'WIKI'
p5424
aS'The_Night_Watch'
p5425
asS'2032'
p5426
(lp5427
S'train'
p5428
aS'WIKI'
p5429
aS'The_Necklace'
p5430
asS'2031'
p5431
(lp5432
S'train'
p5433
aS'WIKI'
p5434
aS'The_Miser'
p5435
asS'9'
(lp5436
S'train'
p5437
aS'WIKI'
p5438
aS"A_Doll's_House"
p5439
asS'1245'
p5440
(lp5441
S'train'
p5442
aS'WIKI'
p5443
aS'Lines_written_a_few_miles_above_Tintern_Abbey'
p5444
asS'2038'
p5445
(lp5446
S'train'
p5447
aS'WIKI'
p5448
aS"The_Painter's_Studio"
p5449
asS'893'
p5450
(lp5451
S'train'
p5452
aS'WIKI'
p5453
aS'Hard_Times'
p5454
asS'895'
p5455
(lp5456
S'train'
p5457
aS'WIKI'
p5458
aS'Harmonic_oscillator'
p5459
asS'896'
p5460
(lp5461
S'train'
p5462
aS'WIKI'
p5463
aS'Harold_en_Italie'
p5464
asS'897'
p5465
(lp5466
S'train'
p5467
aS'WIKI'
p5468
aS'Harold_Godwinson'
p5469
asS'898'
p5470
(lp5471
S'train'
p5472
aS'WIKI'
p5473
aS'Harold_Pinter'
p5474
asS'899'
p5475
(lp5476
S'train'
p5477
aS'WIKI'
p5478
aS'Harriet_Beecher_Stowe'
p5479
asS'1530'
p5480
(lp5481
S'train'
p5482
aS'WIKI'
p5483
aS'Panama'
p5484
asS'1616'
p5485
(lp5486
S'train'
p5487
aS'WIKI'
p5488
aS'Plautus'
p5489
asS'1966'
p5490
(lp5491
S'train'
p5492
aS'WIKI'
p5493
aS'The_Cherry_Orchard'
p5494
asS'1788'
p5495
(lp5496
S'train'
p5497
aS'WIKI'
p5498
aS'Selim_I'
p5499
asS'1789'
p5500
(lp5501
S'train'
p5502
aS'WIKI'
p5503
aS'Semiconductor'
p5504
asS'1615'
p5505
(lp5506
S'train'
p5507
aS'WIKI'
p5508
aS'Plato'
p5509
asS'1780'
p5510
(lp5511
S'train'
p5512
aS'WIKI'
p5513
aS'Scott_Joplin'
p5514
asS'1612'
p5515
(lp5516
S'train'
p5517
aS'WIKI'
p5518
aS'Pituitary_gland'
p5519
asS'1782'
p5520
(lp5521
S'train'
p5522
aS'WIKI'
p5523
aS'Seafloor_spreading'
p5524
asS'1783'
p5525
(lp5526
S'train'
p5527
aS'WIKI'
p5528
aS'Seagram_Building'
p5529
asS'766'
p5530
(lp5531
S'train'
p5532
aS'WIKI'
p5533
aS'Gargantua_and_Pantagruel'
p5534
asS'1785'
p5535
(lp5536
S'train'
p5537
aS'WIKI'
p5538
aS'Seattle'
p5539
asS'1786'
p5540
(lp5541
S'train'
p5542
aS'WIKI'
p5543
aS'Second_Boer_War'
p5544
asS'1787'
p5545
(lp5546
S'train'
p5547
aS'WIKI'
p5548
aS'Second_law_of_thermodynamics'
p5549
asS'1962'
p5550
(lp5551
S'train'
p5552
aS'WIKI'
p5553
aS'The_Canterbury_Tales'
p5554
asS'1963'
p5555
(lp5556
S'train'
p5557
aS'WIKI'
p5558
aS'The_Carnival_of_the_Animals'
p5559
asS'1078'
p5560
(lp5561
S'train'
p5562
aS'WIKI'
p5563
aS'Jean_Sibelius'
p5564
asS'1079'
p5565
(lp5566
S'train'
p5567
aS'WIKI'
p5568
aS'Jean-Jacques_Rousseau'
p5569
asS'1076'
p5570
(lp5571
S'train'
p5572
aS'WIKI'
p5573
aS'Jean_Piaget'
p5574
asS'1077'
p5575
(lp5576
S'train'
p5577
aS'WIKI'
p5578
aS'Jean_Racine'
p5579
asS'1072'
p5580
(lp5581
S'train'
p5582
aS'WIKI'
p5583
aS'Jawaharlal_Nehru'
p5584
asS'1070'
p5585
(lp5586
S'train'
p5587
aS'WIKI'
p5588
aS'Jason'
p5589
asS'1071'
p5590
(lp5591
S'train'
p5592
aS'WIKI'
p5593
aS'Java'
p5594
asS'1678'
p5595
(lp5596
S'train'
p5597
aS'WIKI'
p5598
aS'Rainer_Maria_Rilke'
p5599
asS'1674'
p5600
(lp5601
S'train'
p5602
aS'WIKI'
p5603
aS'Rabbit'
p5604
asS'1675'
p5605
(lp5606
S'train'
p5607
aS'WIKI'
p5608
aS'Rabindranath_Tagore'
p5609
asS'1676'
p5610
(lp5611
S'train'
p5612
aS'WIKI'
p5613
aS'Radical_(chemistry)'
p5614
asS'1677'
p5615
(lp5616
S'train'
p5617
aS'WIKI'
p5618
aS'Rainer_Ludwig_Claisen'
p5619
asS'1670'
p5620
(lp5621
S'train'
p5622
aS'WIKI'
p5623
aS'Quetzalcoatl'
p5624
asS'1671'
p5625
(lp5626
S'train'
p5627
aS'WIKI'
p5628
aS'Quicksort'
p5629
asS'1673'
p5630
(lp5631
S'train'
p5632
aS'WIKI'
p5633
aS'Ra'
p5634
asS'1094'
p5635
(lp5636
S'train'
p5637
aS'WIKI'
p5638
aS'Johannes_Vermeer'
p5639
asS'1095'
p5640
(lp5641
S'train'
p5642
aS'WIKI'
p5643
aS'John_A_Macdonald'
p5644
asS'1096'
p5645
(lp5646
S'train'
p5647
aS'WIKI'
p5648
aS'John_Adams_(composer)'
p5649
asS'1097'
p5650
(lp5651
S'train'
p5652
aS'WIKI'
p5653
aS'John_Adams'
p5654
asS'1090'
p5655
(lp5656
S'train'
p5657
aS'WIKI'
p5658
aS'Johann_Sebastian_Bach'
p5659
asS'679'
p5660
(lp5661
S'train'
p5662
aS'WIKI'
p5663
aS'Federico_Garcia_Lorca'
p5664
asS'1092'
p5665
(lp5666
S'train'
p5667
aS'WIKI'
p5668
aS'Johannes_Brahms'
p5669
asS'1093'
p5670
(lp5671
S'train'
p5672
aS'WIKI'
p5673
aS'Johannes_Kepler'
p5674
asS'674'
p5675
(lp5676
S'train'
p5677
aS'WIKI'
p5678
aS'Fashoda_Incident'
p5679
asS'675'
p5680
(lp5681
S'train'
p5682
aS'WIKI'
p5683
aS'Fasting'
p5684
asS'677'
p5685
(lp5686
S'train'
p5687
aS'WIKI'
p5688
aS'Faust'
p5689
asS'1098'
p5690
(lp5691
S'train'
p5692
aS'WIKI'
p5693
aS'John_B_Watson'
p5694
asS'1099'
p5695
(lp5696
S'train'
p5697
aS'WIKI'
p5698
aS'John_Brown_(abolitionist)'
p5699
asS'672'
p5700
(lp5701
S'train'
p5702
aS'WIKI'
p5703
aS'Factorial'
p5704
asS'1418'
p5705
(lp5706
S'train'
p5707
aS'WIKI'
p5708
aS'Nathaniel_Hawthorne'
p5709
asS'1419'
p5710
(lp5711
S'train'
p5712
aS'WIKI'
p5713
aS'Nation_of_Islam'
p5714
asS'1410'
p5715
(lp5716
S'train'
p5717
aS'WIKI'
p5718
aS'Murder_on_the_Orient_Express'
p5719
asS'1411'
p5720
(lp5721
S'train'
p5722
aS'WIKI'
p5723
aS'Music_of_Pyotr_Ilyich_Tchaikovsky'
p5724
asS'1412'
p5725
(lp5726
S'train'
p5727
aS'WIKI'
p5728
aS'My_Last_Duchess'
p5729
asS'1413'
p5730
(lp5731
S'train'
p5732
aS'WIKI'
p5733
aS'Nadine_Gordimer'
p5734
asS'1414'
p5735
(lp5736
S'train'
p5737
aS'WIKI'
p5738
aS'Naguib_Mahfouz'
p5739
asS'1416'
p5740
(lp5741
S'train'
p5742
aS'WIKI'
p5743
aS'Napoleon'
p5744
asS'1417'
p5745
(lp5746
S'train'
p5747
aS'WIKI'
p5748
aS'Nathan_the_Wise'
p5749
asS'1320'
p5750
(lp5751
S'train'
p5752
aS'WIKI'
p5753
aS'Marcus_Licinius_Crassus'
p5754
asS'1321'
p5755
(lp5756
S'train'
p5757
aS'WIKI'
p5758
aS'Marduk'
p5759
asS'1326'
p5760
(lp5761
S'train'
p5762
aS'WIKI'
p5763
aS'Mark_Antony'
p5764
asS'1325'
p5765
(lp5766
S'train'
p5767
aS'WIKI'
p5768
aS'Mario_Vargas_Llosa'
p5769
asS'1328'
p5770
(lp5771
S'train'
p5772
aS'WIKI'
p5773
aS"Markovnikov's_rule"
p5774
asS'1329'
p5775
(lp5776
S'train'
p5777
aS'WIKI'
p5778
aS'Mars_(mythology)'
p5779
asS'5'
(lp5780
S'train'
p5781
aS'WIKI'
p5782
aS'5_(number)'
p5783
asS'1256'
p5784
(lp5785
S'train'
p5786
aS'WIKI'
p5787
aS'Lohengrin_(opera)'
p5788
asS'1257'
p5789
(lp5790
S'train'
p5791
aS'WIKI'
p5792
aS'Loki'
p5793
asS'1254'
p5794
(lp5795
S'train'
p5796
aS'WIKI'
p5797
aS'Liver'
p5798
asS'1521'
p5799
(lp5800
S'train'
p5801
aS'WIKI'
p5802
aS'P53'
p5803
asS'1522'
p5804
(lp5805
S'train'
p5806
aS'WIKI'
p5807
aS'Pablo_Neruda'
p5808
asS'1523'
p5809
(lp5810
S'train'
p5811
aS'WIKI'
p5812
aS'Pablo_Picasso'
p5813
asS'1528'
p5814
(lp5815
S'train'
p5816
aS'WIKI'
p5817
aS'Pan_(god)'
p5818
asS'1529'
p5819
(lp5820
S'train'
p5821
aS'WIKI'
p5822
aS"Pan's_Labyrinth"
p5823
asS'1258'
p5824
(lp5825
S'train'
p5826
aS'WIKI'
p5827
aS'Lolita'
p5828
asS'308'
p5829
(lp5830
S'train'
p5831
aS'WIKI'
p5832
aS'Brownian_motion'
p5833
asS'309'
p5834
(lp5835
S'train'
p5836
aS'WIKI'
p5837
aS'Bruno_Bettelheim'
p5838
asS'301'
p5839
(lp5840
S'train'
p5841
aS'WIKI'
p5842
aS'Brave_New_World'
p5843
asS'302'
p5844
(lp5845
S'train'
p5846
aS'WIKI'
p5847
aS'Brazil'
p5848
asS'303'
p5849
(lp5850
S'train'
p5851
aS'WIKI'
p5852
aS'Brian_Mulroney'
p5853
asS'304'
p5854
(lp5855
S'train'
p5856
aS'WIKI'
p5857
aS'Brideshead_Revisited'
p5858
asS'305'
p5859
(lp5860
S'train'
p5861
aS'WIKI'
p5862
aS'Bridge'
p5863
asS'306'
p5864
(lp5865
S'train'
p5866
aS'WIKI'
p5867
aS'Bronislaw_Malinowski'
p5868
asS'307'
p5869
(lp5870
S'train'
p5871
aS'WIKI'
p5872
aS'Brown_dwarf'
p5873
asS'471'
p5874
(lp5875
S'train'
p5876
aS'WIKI'
p5877
aS'Crime'
p5878
asS'1898'
p5879
(lp5880
S'train'
p5881
aS'WIKI'
p5882
aS'Surfactant'
p5883
asS'1894'
p5884
(lp5885
S'train'
p5886
aS'WIKI'
p5887
aS'Superfluidity'
p5888
asS'1895'
p5889
(lp5890
S'train'
p5891
aS'WIKI'
p5892
aS'Supernova'
p5893
asS'1897'
p5894
(lp5895
S'train'
p5896
aS'WIKI'
p5897
aS'Surface_tension'
p5898
asS'1891'
p5899
(lp5900
S'train'
p5901
aS'WIKI'
p5902
aS'Sun'
p5903
asS'1892'
p5904
(lp5905
S'train'
p5906
aS'WIKI'
p5907
aS'Sunspot'
p5908
asS'1893'
p5909
(lp5910
S'train'
p5911
aS'WIKI'
p5912
aS'Superconductivity'
p5913
asS'959'
p5914
(lp5915
S'train'
p5916
aS'WIKI'
p5917
aS'Hittites'
p5918
asS'958'
p5919
(lp5920
S'train'
p5921
aS'WIKI'
p5922
aS'Histone'
p5923
asS'2135'
p5924
(lp5925
S'train'
p5926
aS'WIKI'
p5927
aS'To_His_Coy_Mistress'
p5928
asS'2132'
p5929
(lp5930
S'train'
p5931
aS'WIKI'
p5932
aS'Titration'
p5933
asS'2133'
p5934
(lp5935
S'train'
p5936
aS'WIKI'
p5937
aS'Tlaloc'
p5938
asS'2131'
p5939
(lp5940
S'train'
p5941
aS'WIKI'
p5942
aS'Titian'
p5943
asS'950'
p5944
(lp5945
S'train'
p5946
aS'WIKI'
p5947
aS'Hermann_Hesse'
p5948
asS'953'
p5949
(lp5950
S'train'
p5951
aS'WIKI'
p5952
aS'Hesiod'
p5953
asS'952'
p5954
(lp5955
S'train'
p5956
aS'WIKI'
p5957
aS'Hermes'
p5958
asS'955'
p5959
(lp5960
S'train'
p5961
aS'WIKI'
p5962
aS'Higgs_boson'
p5963
asS'956'
p5964
(lp5965
S'train'
p5966
aS'WIKI'
p5967
aS'Hippocampus'
p5968
asS'2003'
p5969
(lp5970
S'train'
p5971
aS'WIKI'
p5972
aS'The_Hollow_Men'
p5973
asS'2000'
p5974
(lp5975
S'train'
p5976
aS'WIKI'
p5977
aS'The_Hay_Wain'
p5978
asS'2006'
p5979
(lp5980
S'train'
p5981
aS'WIKI'
p5982
aS'The_Hunchback_of_Notre-Dame'
p5983
asS'2007'
p5984
(lp5985
S'train'
p5986
aS'WIKI'
p5987
aS'The_Iceman_Cometh'
p5988
asS'2004'
p5989
(lp5990
S'train'
p5991
aS'WIKI'
p5992
aS'The_House_of_Bernarda_Alba'
p5993
asS'2005'
p5994
(lp5995
S'train'
p5996
aS'WIKI'
p5997
aS'The_House_of_Mirth'
p5998
asS'2009'
p5999
(lp6000
S'train'
p6001
aS'WIKI'
p6002
aS'The_Importance_of_Being_Earnest'
p6003
asS'506'
p6004
(lp6005
S'train'
p6006
aS'WIKI'
p6007
aS'David_Alfaro_Siqueiros'
p6008
asS'667'
p6009
(lp6010
S'train'
p6011
aS'WIKI'
p6012
aS'Evelyn_Waugh'
p6013
asS'666'
p6014
(lp6015
S'train'
p6016
aS'WIKI'
p6017
aS'Euthyphro'
p6018
asS'1798'
p6019
(lp6020
S'train'
p6021
aS'WIKI'
p6022
aS'Seychelles'
p6023
asS'719'
p6024
(lp6025
S'train'
p6026
aS'WIKI'
p6027
aS'Francois_Duvalier'
p6028
asS'718'
p6029
(lp6030
S'train'
p6031
aS'WIKI'
p6032
aS'Franco-Prussian_War'
p6033
asS'717'
p6034
(lp6035
S'train'
p6036
aS'WIKI'
p6037
aS'Francisco_I_Madero'
p6038
asS'716'
p6039
(lp6040
S'train'
p6041
aS'WIKI'
p6042
aS'Francisco_Goya'
p6043
asS'1791'
p6044
(lp6045
S'train'
p6046
aS'WIKI'
p6047
aS'Senegal'
p6048
asS'1790'
p6049
(lp6050
S'train'
p6051
aS'WIKI'
p6052
aS'Seneca_Falls_Convention'
p6053
asS'713'
p6054
(lp6055
S'train'
p6056
aS'WIKI'
p6057
aS'Francis_Bacon'
p6058
asS'712'
p6059
(lp6060
S'train'
p6061
aS'WIKI'
p6062
aS'Francis_Bacon_(artist)'
p6063
asS'1795'
p6064
(lp6065
S'train'
p6066
aS'WIKI'
p6067
aS'Sergei_Rachmaninoff'
p6068
asS'710'
p6069
(lp6070
S'train'
p6071
aS'WIKI'
p6072
aS'Fourth_Crusade'
p6073
asS'1069'
p6074
(lp6075
S'train'
p6076
aS'WIKI'
p6077
aS'Japan'
p6078
asS'2179'
p6079
(lp6080
S'train'
p6081
aS'WIKI'
p6082
aS'Two_Dogmas_of_Empiricism'
p6083
asS'1061'
p6084
(lp6085
S'train'
p6086
aS'WIKI'
p6087
aS'James_Monroe'
p6088
asS'1060'
p6089
(lp6090
S'train'
p6091
aS'WIKI'
p6092
aS'James_Joyce'
p6093
asS'1062'
p6094
(lp6095
S'train'
p6096
aS'WIKI'
p6097
aS'James_VI_and_I'
p6098
asS'1064'
p6099
(lp6100
S'train'
p6101
aS'WIKI'
p6102
aS'Jamestown_Virginia'
p6103
asS'1067'
p6104
(lp6105
S'train'
p6106
aS'WIKI'
p6107
aS'Jansenism'
p6108
asS'1066'
p6109
(lp6110
S'train'
p6111
aS'WIKI'
p6112
aS'Jane_Eyre'
p6113
asS'1668'
p6114
(lp6115
S'train'
p6116
aS'WIKI'
p6117
aS'Quasar'
p6118
asS'1667'
p6119
(lp6120
S'train'
p6121
aS'WIKI'
p6122
aS'Quartz'
p6123
asS'1666'
p6124
(lp6125
S'train'
p6126
aS'WIKI'
p6127
aS'Quark'
p6128
asS'1665'
p6129
(lp6130
S'train'
p6131
aS'WIKI'
p6132
aS'Quantum_tunnelling'
p6133
asS'1661'
p6134
(lp6135
S'train'
p6136
aS'WIKI'
p6137
aS'Python_(programming_language)'
p6138
asS'1660'
p6139
(lp6140
S'train'
p6141
aS'WIKI'
p6142
aS'Pythagorean_theorem'
p6143
asS'591'
p6144
(lp6145
S'train'
p6146
aS'WIKI'
p6147
aS'Edict_of_Nantes'
p6148
asS'1086'
p6149
(lp6150
S'train'
p6151
aS'WIKI'
p6152
aS'Jesus'
p6153
asS'593'
p6154
(lp6155
S'train'
p6156
aS'WIKI'
p6157
aS'Edmund_Husserl'
p6158
asS'592'
p6159
(lp6160
S'train'
p6161
aS'WIKI'
p6162
aS'Edith_Wharton'
p6163
asS'595'
p6164
(lp6165
S'train'
p6166
aS'WIKI'
p6167
aS'Edvard_Grieg'
p6168
asS'1082'
p6169
(lp6170
S'train'
p6171
aS'WIKI'
p6172
aS'Jefferson_Davis'
p6173
asS'1081'
p6174
(lp6175
S'train'
p6176
aS'WIKI'
p6177
aS'Jean-Philippe_Rameau'
p6178
asS'596'
p6179
(lp6180
S'train'
p6181
aS'WIKI'
p6182
aS'Edvard_Munch'
p6183
asS'599'
p6184
(lp6185
S'train'
p6186
aS'WIKI'
p6187
aS'Edward_Hopper'
p6188
asS'598'
p6189
(lp6190
S'train'
p6191
aS'WIKI'
p6192
aS'Edward_Elgar'
p6193
asS'1089'
p6194
(lp6195
S'train'
p6196
aS'WIKI'
p6197
aS'Johann_Gottlieb_Fichte'
p6198
asS'1088'
p6199
(lp6200
S'train'
p6201
aS'WIKI'
p6202
aS'Job_(biblical_figure)'
p6203
asS'1409'
p6204
(lp6205
S'train'
p6206
aS'WIKI'
p6207
aS'Munich'
p6208
asS'1408'
p6209
(lp6210
S'train'
p6211
aS'WIKI'
p6212
aS'Muhammad_Ali_of_Egypt'
p6213
asS'1403'
p6214
(lp6215
S'train'
p6216
aS'WIKI'
p6217
aS'Mozambique'
p6218
asS'1400'
p6219
(lp6220
S'train'
p6221
aS'WIKI'
p6222
aS'Mossbauer_effect'
p6223
asS'1406'
p6224
(lp6225
S'train'
p6226
aS'WIKI'
p6227
aS'Mughal_Empire'
p6228
asS'1405'
p6229
(lp6230
S'train'
p6231
aS'WIKI'
p6232
aS'Much_Ado_About_Nothing'
p6233
asS'1404'
p6234
(lp6235
S'train'
p6236
aS'WIKI'
p6237
aS'Mrs_Dalloway'
p6238
asS'1546'
p6239
(lp6240
S'train'
p6241
aS'WIKI'
p6242
aS'Paul_Cezanne'
p6243
asS'449'
p6244
(lp6245
S'train'
p6246
aS'WIKI'
p6247
aS'Copper'
p6248
asS'448'
p6249
(lp6250
S'train'
p6251
aS'WIKI'
p6252
aS'Cooper_pair'
p6253
asS'443'
p6254
(lp6255
S'train'
p6256
aS'WIKI'
p6257
aS'Consciousness'
p6258
asS'442'
p6259
(lp6260
S'train'
p6261
aS'WIKI'
p6262
aS'Congress_of_Vienna'
p6263
asS'441'
p6264
(lp6265
S'train'
p6266
aS'WIKI'
p6267
aS'Congress_of_Berlin'
p6268
asS'440'
p6269
(lp6270
S'train'
p6271
aS'WIKI'
p6272
aS'Concordat_of_Worms'
p6273
asS'447'
p6274
(lp6275
S'train'
p6276
aS'WIKI'
p6277
aS'Convergence_(mathematics)'
p6278
asS'446'
p6279
(lp6280
S'train'
p6281
aS'WIKI'
p6282
aS'Convection'
p6283
asS'445'
p6284
(lp6285
S'train'
p6286
aS'WIKI'
p6287
aS'Constantine_the_Great'
p6288
asS'444'
p6289
(lp6290
S'train'
p6291
aS'WIKI'
p6292
aS'Constantin_Brancusi'
p6293
asS'697'
p6294
(lp6295
S'train'
p6296
aS'WIKI'
p6297
aS"Flannery_O'Connor"
p6298
asS'39'
p6299
(lp6300
S'train'
p6301
aS'WIKI'
p6302
aS'Acetone'
p6303
asS'38'
p6304
(lp6305
S'train'
p6306
aS'WIKI'
p6307
aS'Acceleration'
p6308
asS'32'
p6309
(lp6310
S'train'
p6311
aS'WIKI'
p6312
aS'Abbasid_Caliphate'
p6313
asS'31'
p6314
(lp6315
S'train'
p6316
aS'WIKI'
p6317
aS'Aaron'
p6318
asS'30'
p6319
(lp6320
S'train'
p6321
aS'WIKI'
p6322
aS'Aaron_Copland'
p6323
asS'37'
p6324
(lp6325
S'train'
p6326
aS'WIKI'
p6327
aS'Academic_Festival_Overture'
p6328
asS'36'
p6329
(lp6330
S'train'
p6331
aS'WIKI'
p6332
aS'Abscisic_acid'
p6333
asS'35'
p6334
(lp6335
S'train'
p6336
aS'WIKI'
p6337
aS'Abraham'
p6338
asS'641'
p6339
(lp6340
S'train'
p6341
aS'WIKI'
p6342
aS'Equus_(play)'
p6343
asS'640'
p6344
(lp6345
S'train'
p6346
aS'WIKI'
p6347
aS'Equilibrium_constant'
p6348
asS'643'
p6349
(lp6350
S'train'
p6351
aS'WIKI'
p6352
aS'Erich_Maria_Remarque'
p6353
asS'1242'
p6354
(lp6355
S'train'
p6356
aS'WIKI'
p6357
aS'Lichen'
p6358
asS'645'
p6359
(lp6360
S'train'
p6361
aS'WIKI'
p6362
aS'Erik_Satie'
p6363
asS'1532'
p6364
(lp6365
S'train'
p6366
aS'WIKI'
p6367
aS'Panic_of_1837'
p6368
asS'1531'
p6369
(lp6370
S'train'
p6371
aS'WIKI'
p6372
aS'Pancreas'
p6373
asS'646'
p6374
(lp6375
S'train'
p6376
aS'WIKI'
p6377
aS'Ernest_Hemingway'
p6378
asS'1249'
p6379
(lp6380
S'train'
p6381
aS'WIKI'
p6382
aS"Liouville's_theorem_(complex_analysis)"
p6383
asS'648'
p6384
(lp6385
S'train'
p6386
aS'WIKI'
p6387
aS'Erving_Goffman'
p6388
asS'338'
p6389
(lp6390
S'train'
p6391
aS'WIKI'
p6392
aS'Carl_Friedrich_Gauss'
p6393
asS'335'
p6394
(lp6395
S'train'
p6396
aS'WIKI'
p6397
aS'Carboniferous'
p6398
asS'337'
p6399
(lp6400
S'train'
p6401
aS'WIKI'
p6402
aS'Cardinal_Mazarin'
p6403
asS'331'
p6404
(lp6405
S'train'
p6406
aS'WIKI'
p6407
aS'Capacitor'
p6408
asS'332'
p6409
(lp6410
S'train'
p6411
aS'WIKI'
p6412
aS'Caravaggio'
p6413
asS'8'
(lp6414
S'train'
p6415
aS'WIKI'
p6416
aS'A_Burial_At_Ornans'
p6417
asS'1352'
p6418
(lp6419
S'train'
p6420
aS'WIKI'
p6421
aS'Meiosis'
p6422
asS'1889'
p6423
(lp6424
S'train'
p6425
aS'WIKI'
p6426
aS'Sultan_Ahmed_Mosque'
p6427
asS'1888'
p6428
(lp6429
S'train'
p6430
aS'WIKI'
p6431
aS'Sulfuric_acid'
p6432
asS'1887'
p6433
(lp6434
S'train'
p6435
aS'WIKI'
p6436
aS'Sulfur'
p6437
asS'1886'
p6438
(lp6439
S'train'
p6440
aS'WIKI'
p6441
aS'Suleiman_the_Magnificent'
p6442
asS'1885'
p6443
(lp6444
S'train'
p6445
aS'WIKI'
p6446
aS'Sula_(novel)'
p6447
asS'1883'
p6448
(lp6449
S'train'
p6450
aS'WIKI'
p6451
aS'Suicide_(book)'
p6452
asS'1880'
p6453
(lp6454
S'train'
p6455
aS'WIKI'
p6456
aS'String_quartet'
p6457
asS'2121'
p6458
(lp6459
S'train'
p6460
aS'WIKI'
p6461
aS'Thyroid'
p6462
asS'2123'
p6463
(lp6464
S'train'
p6465
aS'WIKI'
p6466
aS'Timon_of_Athens'
p6467
asS'2122'
p6468
(lp6469
S'train'
p6470
aS'WIKI'
p6471
aS'Tierra_del_Fuego'
p6472
asS'2124'
p6473
(lp6474
S'train'
p6475
aS'WIKI'
p6476
aS'Timur'
p6477
asS'948'
p6478
(lp6479
S'train'
p6480
aS'WIKI'
p6481
aS'Herbert_Spencer'
p6482
asS'2126'
p6483
(lp6484
S'train'
p6485
aS'WIKI'
p6486
aS'Tiresias'
p6487
asS'2129'
p6488
(lp6489
S'train'
p6490
aS'WIKI'
p6491
aS'Titan_(moon)'
p6492
asS'2128'
p6493
(lp6494
S'train'
p6495
aS'WIKI'
p6496
aS"Tisha_B'Av"
p6497
asS'944'
p6498
(lp6499
S'train'
p6500
aS'WIKI'
p6501
aS'Hera'
p6502
asS'945'
p6503
(lp6504
S'train'
p6505
aS'WIKI'
p6506
aS'Heracles'
p6507
asS'940'
p6508
(lp6509
S'train'
p6510
aS'WIKI'
p6511
aS'Henry_Wadsworth_Longfellow'
p6512
asS'941'
p6513
(lp6514
S'train'
p6515
aS'WIKI'
p6516
aS"Henry's_law"
p6517
asS'133'
p6518
(lp6519
S'train'
p6520
aS'WIKI'
p6521
aS'Antonin_Dvorak'
p6522
asS'132'
p6523
(lp6524
S'train'
p6525
aS'WIKI'
p6526
aS'Anton_Chekhov'
p6527
asS'131'
p6528
(lp6529
S'train'
p6530
aS'WIKI'
p6531
aS'Anton_Bruckner'
p6532
asS'130'
p6533
(lp6534
S'train'
p6535
aS'WIKI'
p6536
aS'Antoine_Watteau'
p6537
asS'137'
p6538
(lp6539
S'train'
p6540
aS'WIKI'
p6541
aS'Aorta'
p6542
asS'134'
p6543
(lp6544
S'train'
p6545
aS'WIKI'
p6546
aS'Antonio_da_Correggio'
p6547
asS'139'
p6548
(lp6549
S'train'
p6550
aS'WIKI'
p6551
aS'Aphrodite'
p6552
asS'138'
p6553
(lp6554
S'train'
p6555
aS'WIKI'
p6556
aS'Apartheid'
p6557
asS'2019'
p6558
(lp6559
S'train'
p6560
aS'WIKI'
p6561
aS'The_Little_Foxes'
p6562
asS'2015'
p6563
(lp6564
S'train'
p6565
aS'WIKI'
p6566
aS'The_Last_of_the_Mohicans'
p6567
asS'2014'
p6568
(lp6569
S'train'
p6570
aS'WIKI'
p6571
aS'The_Knights'
p6572
asS'2017'
p6573
(lp6574
S'train'
p6575
aS'WIKI'
p6576
aS'The_Leopard'
p6577
asS'2016'
p6578
(lp6579
S'train'
p6580
aS'WIKI'
p6581
aS'The_Last_Supper_(Leonardo_da_Vinci)'
p6582
asS'2013'
p6583
(lp6584
S'train'
p6585
aS'WIKI'
p6586
aS'The_Kiss_(Klimt)'
p6587
asS'2012'
p6588
(lp6589
S'train'
p6590
aS'WIKI'
p6591
aS'The_Jungle'
p6592
asS'708'
p6593
(lp6594
S'train'
p6595
aS'WIKI'
p6596
aS'Four_color_theorem'
p6597
asS'704'
p6598
(lp6599
S'train'
p6600
aS'WIKI'
p6601
aS'Football_War'
p6602
asS'706'
p6603
(lp6604
S'train'
p6605
aS'WIKI'
p6606
aS"Foucault's_Pendulum"
p6607
asS'707'
p6608
(lp6609
S'train'
p6610
aS'WIKI'
p6611
aS'Founder_effect'
p6612
asS'700'
p6613
(lp6614
S'train'
p6615
aS'WIKI'
p6616
aS'Florida'
p6617
asS'701'
p6618
(lp6619
S'train'
p6620
aS'WIKI'
p6621
aS'Flowering_plant'
p6622
asS'702'
p6623
(lp6624
S'train'
p6625
aS'WIKI'
p6626
aS'Fluorine'
p6627
asS'703'
p6628
(lp6629
S'train'
p6630
aS'WIKI'
p6631
aS'Flute'
p6632
asS'89'
p6633
(lp6634
S'train'
p6635
aS'WIKI'
p6636
aS'Alkene'
p6637
asS'82'
p6638
(lp6639
S'train'
p6640
aS'WIKI'
p6641
aS'Alfred_Marshall'
p6642
asS'83'
p6643
(lp6644
S'train'
p6645
aS'WIKI'
p6646
aS'Alfred_Stieglitz'
p6647
asS'80'
p6648
(lp6649
S'train'
p6650
aS'WIKI'
p6651
aS'Alexis_de_Tocqueville'
p6652
asS'87'
p6653
(lp6654
S'train'
p6655
aS'WIKI'
p6656
aS'Algeria'
p6657
asS'84'
p6658
(lp6659
S'train'
p6660
aS'WIKI'
p6661
aS'Alfred_the_Great'
p6662
asS'85'
p6663
(lp6664
S'train'
p6665
aS'WIKI'
p6666
aS'Alfred_Lord_Tennyson'
p6667
asS'762'
p6668
(lp6669
S'train'
p6670
aS'WIKI'
p6671
aS'Gamma'
p6672
asS'1658'
p6673
(lp6674
S'train'
p6675
aS'WIKI'
p6676
aS'Pygmalion_(play)'
p6677
asS'1659'
p6678
(lp6679
S'train'
p6680
aS'WIKI'
p6681
aS'Pyotr_Ilyich_Tchaikovsky'
p6682
asS'410'
p6683
(lp6684
S'train'
p6685
aS'WIKI'
p6686
aS'Citric_acid_cycle'
p6687
asS'1650'
p6688
(lp6689
S'train'
p6690
aS'WIKI'
p6691
aS'Prometheus'
p6692
asS'1651'
p6693
(lp6694
S'train'
p6695
aS'WIKI'
p6696
aS'Prophase'
p6697
asS'1656'
p6698
(lp6699
S'train'
p6700
aS'WIKI'
p6701
aS'Pulsar'
p6702
asS'1657'
p6703
(lp6704
S'train'
p6705
aS'WIKI'
p6706
aS'Punctuated_equilibrium'
p6707
asS'1655'
p6708
(lp6709
S'train'
p6710
aS'WIKI'
p6711
aS'Puerto_Rico'
p6712
asS'586'
p6713
(lp6714
S'train'
p6715
aS'WIKI'
p6716
aS'East_Germany'
p6717
asS'587'
p6718
(lp6719
S'train'
p6720
aS'WIKI'
p6721
aS'Echinoderm'
p6722
asS'584'
p6723
(lp6724
S'train'
p6725
aS'WIKI'
p6726
aS'E_M_Forster'
p6727
asS'583'
p6728
(lp6729
S'train'
p6730
aS'WIKI'
p6731
aS'E_E_Cummings'
p6732
asS'581'
p6733
(lp6734
S'train'
p6735
aS'WIKI'
p6736
aS'Dylan_Thomas'
p6737
asS'588'
p6738
(lp6739
S'train'
p6740
aS'WIKI'
p6741
aS'Eclogues'
p6742
asS'1633'
p6743
(lp6744
S'train'
p6745
aS'WIKI'
p6746
aS'Portrait_of_Madame_X'
p6747
asS'1436'
p6748
(lp6749
S'train'
p6750
aS'WIKI'
p6751
aS'New_Orleans'
p6752
asS'1437'
p6753
(lp6754
S'train'
p6755
aS'WIKI'
p6756
aS'New_York_City'
p6757
asS'1434'
p6758
(lp6759
S'train'
p6760
aS'WIKI'
p6761
aS'New_Guinea'
p6762
asS'1435'
p6763
(lp6764
S'train'
p6765
aS'WIKI'
p6766
aS'New_Mexico'
p6767
asS'1432'
p6768
(lp6769
S'train'
p6770
aS'WIKI'
p6771
aS'Neutron_star'
p6772
asS'1430'
p6773
(lp6774
S'train'
p6775
aS'WIKI'
p6776
aS'Neuron'
p6777
asS'1637'
p6778
(lp6779
S'train'
p6780
aS'WIKI'
p6781
aS'Pragmatism'
p6782
asS'1439'
p6783
(lp6784
S'train'
p6785
aS'WIKI'
p6786
aS"Ngugi_wa_Thiong'o"
p6787
asS'1260'
p6788
(lp6789
S'train'
p6790
aS'WIKI'
p6791
aS'London'
p6792
asS'1348'
p6793
(lp6794
S'train'
p6795
aS'WIKI'
p6796
aS'McTeague'
p6797
asS'459'
p6798
(lp6799
S'train'
p6800
aS'WIKI'
p6801
aS'Cosmic_microwave_background'
p6802
asS'1340'
p6803
(lp6804
S'train'
p6805
aS'WIKI'
p6806
aS'Matthew_Arnold'
p6807
asS'1341'
p6808
(lp6809
S'train'
p6810
aS'WIKI'
p6811
aS'Maurice_Ravel'
p6812
asS'1342'
p6813
(lp6814
S'train'
p6815
aS'WIKI'
p6816
aS'Maurya_Empire'
p6817
asS'1344'
p6818
(lp6819
S'train'
p6820
aS'WIKI'
p6821
aS'Max_Weber'
p6822
asS'1345'
p6823
(lp6824
S'train'
p6825
aS'WIKI'
p6826
aS'Max_Wertheimer'
p6827
asS'1347'
p6828
(lp6829
S'train'
p6830
aS'WIKI'
p6831
aS'Maya_civilization'
p6832
asS'517'
p6833
(lp6834
S'train'
p6835
aS'WIKI'
p6836
aS'Dead_Souls'
p6837
asS'657'
p6838
(lp6839
S'train'
p6840
aS'WIKI'
p6841
aS'Ethylene'
p6842
asS'1500'
p6843
(lp6844
S'train'
p6845
aS'WIKI'
p6846
aS'Orientalism'
p6847
asS'1501'
p6848
(lp6849
S'train'
p6850
aS'WIKI'
p6851
aS'Orinoco'
p6852
asS'652'
p6853
(lp6854
S'train'
p6855
aS'WIKI'
p6856
aS'Ethan_Frome'
p6857
asS'653'
p6858
(lp6859
S'train'
p6860
aS'WIKI'
p6861
aS'Ethanol'
p6862
asS'1138'
p6863
(lp6864
S'train'
p6865
aS'WIKI'
p6866
aS'Joseph_II_Holy_Roman_Emperor'
p6867
asS'651'
p6868
(lp6869
S'train'
p6870
aS'WIKI'
p6871
aS'Estonia'
p6872
asS'1508'
p6873
(lp6874
S'train'
p6875
aS'WIKI'
p6876
aS'Ostend_Manifesto'
p6877
asS'1509'
p6878
(lp6879
S'train'
p6880
aS'WIKI'
p6881
aS'Otto_I_Holy_Roman_Emperor'
p6882
asS'658'
p6883
(lp6884
S'train'
p6885
aS'WIKI'
p6886
aS'Etruscan_civilization'
p6887
asS'659'
p6888
(lp6889
S'train'
p6890
aS'WIKI'
p6891
aS'Euclid'
p6892
asS'2127'
p6893
(lp6894
S'train'
p6895
aS'WIKI'
p6896
aS'Tirthankara'
p6897
asS'321'
p6898
(lp6899
S'train'
p6900
aS'WIKI'
p6901
aS'California'
p6902
asS'326'
p6903
(lp6904
S'train'
p6905
aS'WIKI'
p6906
aS'Candide'
p6907
asS'327'
p6908
(lp6909
S'train'
p6910
aS'WIKI'
p6911
aS'Cane_(novel)'
p6912
asS'324'
p6913
(lp6914
S'train'
p6915
aS'WIKI'
p6916
aS'Cambodia'
p6917
asS'328'
p6918
(lp6919
S'train'
p6920
aS'WIKI'
p6921
aS'Canto_General'
p6922
asS'329'
p6923
(lp6924
S'train'
p6925
aS'WIKI'
p6926
aS'Cao_Cao'
p6927
asS'2249'
p6928
(lp6929
S'train'
p6930
aS'WIKI'
p6931
aS'War_and_Peace'
p6932
asS'2244'
p6933
(lp6934
S'train'
p6935
aS'WIKI'
p6936
aS'Wallace_Stevens'
p6937
asS'2245'
p6938
(lp6939
S'train'
p6940
aS'WIKI'
p6941
aS'Walt_Whitman'
p6942
asS'2246'
p6943
(lp6944
S'train'
p6945
aS'WIKI'
p6946
aS'Walter_Mitty'
p6947
asS'2247'
p6948
(lp6949
S'train'
p6950
aS'WIKI'
p6951
aS'Walter_Scott'
p6952
asS'2241'
p6953
(lp6954
S'train'
p6955
aS'WIKI'
p6956
aS'Waiting_for_Godot'
p6957
asS'2242'
p6958
(lp6959
S'train'
p6960
aS'WIKI'
p6961
aS'Waiting_for_the_Barbarians'
p6962
asS'2243'
p6963
(lp6964
S'train'
p6965
aS'WIKI'
p6966
aS'Wales'
p6967
asS'995'
p6968
(lp6969
S'train'
p6970
aS'WIKI'
p6971
aS'Idaho'
p6972
asS'996'
p6973
(lp6974
S'train'
p6975
aS'WIKI'
p6976
aS'Ideal_gas_law'
p6977
asS'991'
p6978
(lp6979
S'train'
p6980
aS'WIKI'
p6981
aS'I_Sing_the_Body_Electric_(poem)'
p6982
asS'990'
p6983
(lp6984
S'train'
p6985
aS'WIKI'
p6986
aS'I_and_Thou'
p6987
asS'993'
p6988
(lp6989
S'train'
p6990
aS'WIKI'
p6991
aS'Iago'
p6992
asS'992'
p6993
(lp6994
S'train'
p6995
aS'WIKI'
p6996
aS'I_M_Pei'
p6997
asS'999'
p6998
(lp6999
S'train'
p7000
aS'WIKI'
p7001
aS'Il_Penseroso'
p7002
asS'121'
p7003
(lp7004
S'train'
p7005
aS'WIKI'
p7006
aS'Anna_Akhmatova'
p7007
asS'122'
p7008
(lp7009
S'train'
p7010
aS'WIKI'
p7011
aS'Anna_Karenina'
p7012
asS'124'
p7013
(lp7014
S'train'
p7015
aS'WIKI'
p7016
aS'Anomie'
p7017
asS'125'
p7018
(lp7019
S'train'
p7020
aS'WIKI'
p7021
aS'Antarctica'
p7022
asS'127'
p7023
(lp7024
S'train'
p7025
aS'WIKI'
p7026
aS'Anti-Masonic_Party'
p7027
asS'2068'
p7028
(lp7029
S'train'
p7030
aS'WIKI'
p7031
aS'The_Starry_Night'
p7032
asS'2069'
p7033
(lp7034
S'train'
p7035
aS'WIKI'
p7036
aS'The_Stranger_(novel)'
p7037
asS'2060'
p7038
(lp7039
S'train'
p7040
aS'WIKI'
p7041
aS'The_Rite_of_Spring'
p7042
asS'2063'
p7043
(lp7044
S'train'
p7045
aS'WIKI'
p7046
aS'The_Seventh_Seal'
p7047
asS'2064'
p7048
(lp7049
S'train'
p7050
aS'WIKI'
p7051
aS'The_Sickness_Unto_Death'
p7052
asS'2066'
p7053
(lp7054
S'train'
p7055
aS'WIKI'
p7056
aS'The_Sorrows_of_Young_Werther'
p7057
asS'1645'
p7058
(lp7059
S'train'
p7060
aS'WIKI'
p7061
aS'Prime_number'
p7062
asS'1644'
p7063
(lp7064
S'train'
p7065
aS'WIKI'
p7066
aS'Primavera_(painting)'
p7067
asS'1647'
p7068
(lp7069
S'train'
p7070
aS'WIKI'
p7071
aS"Prisoner's_dilemma"
p7072
asS'1646'
p7073
(lp7074
S'train'
p7075
aS'WIKI'
p7076
aS'Prion'
p7077
asS'1643'
p7078
(lp7079
S'train'
p7080
aS'WIKI'
p7081
aS'Pride_and_Prejudice'
p7082
asS'1649'
p7083
(lp7084
S'train'
p7085
aS'WIKI'
p7086
aS'Prometheus_Bound'
p7087
asS'728'
p7088
(lp7089
S'train'
p7090
aS'WIKI'
p7091
aS'Franz_Kafka'
p7092
asS'729'
p7093
(lp7094
S'train'
p7095
aS'WIKI'
p7096
aS'Franz_Liszt'
p7097
asS'573'
p7098
(lp7099
S'train'
p7100
aS'WIKI'
p7101
aS'Dream_of_the_Red_Chamber'
p7102
asS'572'
p7103
(lp7104
S'train'
p7105
aS'WIKI'
p7106
aS'Dragon'
p7107
asS'570'
p7108
(lp7109
S'train'
p7110
aS'WIKI'
p7111
aS'Dover_Beach'
p7112
asS'577'
p7113
(lp7114
S'train'
p7115
aS'WIKI'
p7116
aS'Du_Fu'
p7117
asS'576'
p7118
(lp7119
S'train'
p7120
aS'WIKI'
p7121
aS'Druze'
p7122
asS'601'
p7123
(lp7124
S'train'
p7125
aS'WIKI'
p7126
aS'Edward_the_Confessor'
p7127
asS'600'
p7128
(lp7129
S'train'
p7130
aS'WIKI'
p7131
aS'Edward_Sapir'
p7132
asS'1422'
p7133
(lp7134
S'train'
p7135
aS'WIKI'
p7136
aS'Nausea_(novel)'
p7137
asS'1425'
p7138
(lp7139
S'train'
p7140
aS'WIKI'
p7141
aS'Neptune'
p7142
asS'1427'
p7143
(lp7144
S'train'
p7145
aS'WIKI'
p7146
aS'Nero'
p7147
asS'1426'
p7148
(lp7149
S'train'
p7150
aS'WIKI'
p7151
aS'Nernst_equation'
p7152
asS'1429'
p7153
(lp7154
S'train'
p7155
aS'WIKI'
p7156
aS'Netherlands'
p7157
asS'1428'
p7158
(lp7159
S'train'
p7160
aS'WIKI'
p7161
aS'Nestor_(mythology)'
p7162
asS'2156'
p7163
(lp7164
S'train'
p7165
aS'WIKI'
p7166
aS'Treaty_of_Brest-Litovsk'
p7167
asS'731'
p7168
(lp7169
S'train'
p7170
aS'WIKI'
p7171
aS'Frederic_Chopin'
p7172
asS'730'
p7173
(lp7174
S'train'
p7175
aS'WIKI'
p7176
aS'Franz_Schubert'
p7177
asS'733'
p7178
(lp7179
S'train'
p7180
aS'WIKI'
p7181
aS'Frederick_Delius'
p7182
asS'735'
p7183
(lp7184
S'train'
p7185
aS'WIKI'
p7186
aS'French_language'
p7187
asS'734'
p7188
(lp7189
S'train'
p7190
aS'WIKI'
p7191
aS'Frederick_the_Great'
p7192
asS'736'
p7193
(lp7194
S'train'
p7195
aS'WIKI'
p7196
aS'Frequency'
p7197
asS'739'
p7198
(lp7199
S'train'
p7200
aS'WIKI'
p7201
aS'Friction'
p7202
asS'1359'
p7203
(lp7204
S'train'
p7205
aS'WIKI'
p7206
aS'Messiah_(Handel)'
p7207
asS'1358'
p7208
(lp7209
S'train'
p7210
aS'WIKI'
p7211
aS'Mercury_13'
p7212
asS'469'
p7213
(lp7214
S'train'
p7215
aS'WIKI'
p7216
aS'Crete'
p7217
asS'468'
p7218
(lp7219
S'train'
p7220
aS'WIKI'
p7221
aS'Creek_War'
p7222
asS'1353'
p7223
(lp7224
S'train'
p7225
aS'WIKI'
p7226
aS'Meissner_effect'
p7227
asS'464'
p7228
(lp7229
S'train'
p7230
aS'WIKI'
p7231
aS'Council_of_Trent'
p7232
asS'1351'
p7233
(lp7234
S'train'
p7235
aS'WIKI'
p7236
aS'Meiji_Restoration'
p7237
asS'1350'
p7238
(lp7239
S'train'
p7240
aS'WIKI'
p7241
aS'Medusa'
p7242
asS'461'
p7243
(lp7244
S'train'
p7245
aS'WIKI'
p7246
aS'Cosmological_constant'
p7247
asS'1356'
p7248
(lp7249
S'train'
p7250
aS'WIKI'
p7251
aS'Melbourne'
p7252
asS'1355'
p7253
(lp7254
S'train'
p7255
aS'WIKI'
p7256
aS'Melampus'
p7257
asS'1354'
p7258
(lp7259
S'train'
p7260
aS'WIKI'
p7261
aS'Mekong'
p7262
asS'2158'
p7263
(lp7264
S'train'
p7265
aS'WIKI'
p7266
aS'Treaty_of_Tordesillas'
p7267
asS'1519'
p7268
(lp7269
S'train'
p7270
aS'WIKI'
p7271
aS'Ozymandias'
p7272
asS'1518'
p7273
(lp7274
S'train'
p7275
aS'WIKI'
p7276
aS'Ozone'
p7277
asS'1515'
p7278
(lp7279
S'train'
p7280
aS'WIKI'
p7281
aS'Outer_core'
p7282
asS'1514'
p7283
(lp7284
S'train'
p7285
aS'WIKI'
p7286
aS'Our_Town'
p7287
asS'1517'
p7288
(lp7289
S'train'
p7290
aS'WIKI'
p7291
aS'Oxygen'
p7292
asS'1516'
p7293
(lp7294
S'train'
p7295
aS'WIKI'
p7296
aS'Ovid'
p7297
asS'1511'
p7298
(lp7299
S'train'
p7300
aS'WIKI'
p7301
aS'Ottoman_Empire'
p7302
asS'1513'
p7303
(lp7304
S'train'
p7305
aS'WIKI'
p7306
aS'Our_Man_in_Havana'
p7307
asS'1512'
p7308
(lp7309
S'train'
p7310
aS'WIKI'
p7311
aS'Ottorino_Respighi'
p7312
asS'1275'
p7313
(lp7314
S'train'
p7315
aS'WIKI'
p7316
aS'Lucius_Tarquinius_Superbus'
p7317
asS'1277'
p7318
(lp7319
S'train'
p7320
aS'WIKI'
p7321
aS'Ludwig_van_Beethoven'
p7322
asS'357'
p7323
(lp7324
S'train'
p7325
aS'WIKI'
p7326
aS'Catullus'
p7327
asS'356'
p7328
(lp7329
S'train'
p7330
aS'WIKI'
p7331
aS'Cats_in_ancient_Egypt'
p7332
asS'355'
p7333
(lp7334
S'train'
p7335
aS'WIKI'
p7336
aS'Cato_Street_Conspiracy'
p7337
asS'353'
p7338
(lp7339
S'train'
p7340
aS'WIKI'
p7341
aS'Catalysis'
p7342
asS'352'
p7343
(lp7344
S'train'
p7345
aS'WIKI'
p7346
aS"Cat's_Cradle"
p7347
asS'351'
p7348
(lp7349
S'train'
p7350
aS'WIKI'
p7351
aS'Cat_on_a_Hot_Tin_Roof'
p7352
asS'359'
p7353
(lp7354
S'train'
p7355
aS'WIKI'
p7356
aS'Cell_nucleus'
p7357
asS'2323'
p7358
(lp7359
S'train'
p7360
aS'WIKI'
p7361
aS'Zeus'
p7362
asS'2322'
p7363
(lp7364
S'train'
p7365
aS'WIKI'
p7366
aS'Zen'
p7367
asS'2320'
p7368
(lp7369
S'train'
p7370
aS'WIKI'
p7371
aS'Zambezi'
p7372
asS'2327'
p7373
(lp7374
S'train'
p7375
aS'WIKI'
p7376
aS'Zoot_Suit_Riots'
p7377
asS'2326'
p7378
(lp7379
S'train'
p7380
aS'WIKI'
p7381
aS'Zollverein'
p7382
asS'2325'
p7383
(lp7384
S'train'
p7385
aS'WIKI'
p7386
aS'Zinc'
p7387
asS'1110'
p7388
(lp7389
S'train'
p7390
aS'WIKI'
p7391
aS'John_Foster_Dulles'
p7392
asS'289'
p7393
(lp7394
S'train'
p7395
aS'WIKI'
p7396
aS'Book_of_Isaiah'
p7397
asS'288'
p7398
(lp7399
S'train'
p7400
aS'WIKI'
p7401
aS'Book_of_Genesis'
p7402
asS'281'
p7403
(lp7404
S'train'
p7405
aS'WIKI'
p7406
aS'Boat'
p7407
asS'280'
p7408
(lp7409
S'train'
p7410
aS'WIKI'
p7411
aS'Blue'
p7412
asS'283'
p7413
(lp7414
S'train'
p7415
aS'WIKI'
p7416
aS'Bogomilism'
p7417
asS'282'
p7418
(lp7419
S'train'
p7420
aS'WIKI'
p7421
aS'Bodhisattva'
p7422
asS'285'
p7423
(lp7424
S'train'
p7425
aS'WIKI'
p7426
aS'Bolivia'
p7427
asS'287'
p7428
(lp7429
S'train'
p7430
aS'WIKI'
p7431
aS'Book_of_Deuteronomy'
p7432
asS'1114'
p7433
(lp7434
S'train'
p7435
aS'WIKI'
p7436
aS'John_Keats'
p7437
asS'1441'
p7438
(lp7439
S'train'
p7440
aS'WIKI'
p7441
aS'Nicaragua'
p7442
asS'262'
p7443
(lp7444
S'train'
p7445
aS'WIKI'
p7446
aS"Bernoulli's_principle"
p7447
asS'261'
p7448
(lp7449
S'train'
p7450
aS'WIKI'
p7451
aS'Bernhard_Riemann'
p7452
asS'267'
p7453
(lp7454
S'train'
p7455
aS'WIKI'
p7456
aS'Bigger_Thomas'
p7457
asS'266'
p7458
(lp7459
S'train'
p7460
aS'WIKI'
p7461
aS'Beyond_Good_and_Evil'
p7462
asS'265'
p7463
(lp7464
S'train'
p7465
aS'WIKI'
p7466
aS'Bessel_function'
p7467
asS'269'
p7468
(lp7469
S'train'
p7470
aS'WIKI'
p7471
aS'Billy_Budd'
p7472
asS'268'
p7473
(lp7474
S'train'
p7475
aS'WIKI'
p7476
aS'Bile'
p7477
asS'1297'
p7478
(lp7479
S'train'
p7480
aS'WIKI'
p7481
aS'Mahavira'
p7482
asS'1294'
p7483
(lp7484
S'train'
p7485
aS'WIKI'
p7486
aS'Magnetic_monopole'
p7487
asS'2259'
p7488
(lp7489
S'train'
p7490
aS'WIKI'
p7491
aS'Wassily_Kandinsky'
p7492
asS'2258'
p7493
(lp7494
S'train'
p7495
aS'WIKI'
p7496
aS'Washington_Irving'
p7497
asS'2257'
p7498
(lp7499
S'train'
p7500
aS'WIKI'
p7501
aS'Washington_Crossing_the_Delaware'
p7502
asS'2256'
p7503
(lp7504
S'train'
p7505
aS'WIKI'
p7506
aS'Wars_of_the_Roses'
p7507
asS'2255'
p7508
(lp7509
S'train'
p7510
aS'WIKI'
p7511
aS'War_of_the_Spanish_Succession'
p7512
asS'2254'
p7513
(lp7514
S'train'
p7515
aS'WIKI'
p7516
aS'War_of_the_Polish_Succession'
p7517
asS'2252'
p7518
(lp7519
S'train'
p7520
aS'WIKI'
p7521
aS'War_of_the_Austrian_Succession'
p7522
asS'2250'
p7523
(lp7524
S'train'
p7525
aS'WIKI'
p7526
aS'War_of_1812'
p7527
asS'988'
p7528
(lp7529
S'train'
p7530
aS'WIKI'
p7531
aS'Hysteresis'
p7532
asS'989'
p7533
(lp7534
S'train'
p7535
aS'WIKI'
p7536
aS'I_and_the_Village'
p7537
asS'980'
p7538
(lp7539
S'train'
p7540
aS'WIKI'
p7541
aS'Hungary'
p7542
asS'981'
p7543
(lp7544
S'train'
p7545
aS'WIKI'
p7546
aS'Hydrazine'
p7547
asS'987'
p7548
(lp7549
S'train'
p7550
aS'WIKI'
p7551
aS'Hypnos'
p7552
asS'984'
p7553
(lp7554
S'train'
p7555
aS'WIKI'
p7556
aS'Hydrogenation'
p7557
asS'114'
p7558
(lp7559
S'train'
p7560
aS'WIKI'
p7561
aS'Andrew_Jackson'
p7562
asS'117'
p7563
(lp7564
S'train'
p7565
aS'WIKI'
p7566
aS'Andy_Warhol'
p7567
asS'116'
p7568
(lp7569
S'train'
p7570
aS'WIKI'
p7571
aS'Andromeda_Galaxy'
p7572
asS'111'
p7573
(lp7574
S'train'
p7575
aS'WIKI'
p7576
aS'Andrea_del_Verrocchio'
p7577
asS'110'
p7578
(lp7579
S'train'
p7580
aS'WIKI'
p7581
aS'Ancient_Corinth'
p7582
asS'113'
p7583
(lp7584
S'train'
p7585
aS'WIKI'
p7586
aS'Andrea_Palladio'
p7587
asS'112'
p7588
(lp7589
S'train'
p7590
aS'WIKI'
p7591
aS'Andrea_Mantegna'
p7592
asS'119'
p7593
(lp7594
S'train'
p7595
aS'WIKI'
p7596
aS'Angola'
p7597
asS'118'
p7598
(lp7599
S'train'
p7600
aS'WIKI'
p7601
aS'Angels_in_America:_A_Gay_Fantasia_on_National_Themes'
p7602
asS'2079'
p7603
(lp7604
S'train'
p7605
aS'WIKI'
p7606
aS'The_Trial'
p7607
asS'2078'
p7608
(lp7609
S'train'
p7610
aS'WIKI'
p7611
aS'The_Tin_Drum'
p7612
asS'2072'
p7613
(lp7614
S'train'
p7615
aS'WIKI'
p7616
aS'The_Swing_(painting)'
p7617
asS'2071'
p7618
(lp7619
S'train'
p7620
aS'WIKI'
p7621
aS'The_Sun_Also_Rises'
p7622
asS'2070'
p7623
(lp7624
S'train'
p7625
aS'WIKI'
p7626
aS'The_Structure_of_Scientific_Revolutions'
p7627
asS'2077'
p7628
(lp7629
S'train'
p7630
aS'WIKI'
p7631
aS'The_Three_Musketeers'
p7632
asS'2074'
p7633
(lp7634
S'train'
p7635
aS'WIKI'
p7636
aS'The_Tempest'
p7637
asS'1630'
p7638
(lp7639
S'train'
p7640
aS'WIKI'
p7641
aS'Pope_Julius_II'
p7642
asS'1987'
p7643
(lp7644
S'train'
p7645
aS'WIKI'
p7646
aS'The_Gates_of_Hell'
p7647
asS'1632'
p7648
(lp7649
S'train'
p7650
aS'WIKI'
p7651
aS"Portnoy's_Complaint"
p7652
asS'1985'
p7653
(lp7654
S'train'
p7655
aS'WIKI'
p7656
aS'The_Frogs'
p7657
asS'1982'
p7658
(lp7659
S'train'
p7660
aS'WIKI'
p7661
aS'The_Egoist_(novel)'
p7662
asS'1635'
p7663
(lp7664
S'train'
p7665
aS'WIKI'
p7666
aS'Poseidon'
p7667
asS'1636'
p7668
(lp7669
S'train'
p7670
aS'WIKI'
p7671
aS'Power_(physics)'
p7672
asS'1981'
p7673
(lp7674
S'train'
p7675
aS'WIKI'
p7676
aS'The_Duchess_of_Malfi'
p7677
asS'1638'
p7678
(lp7679
S'train'
p7680
aS'WIKI'
p7681
aS'Prague_Spring'
p7682
asS'1639'
p7683
(lp7684
S'train'
p7685
aS'WIKI'
p7686
aS'Prague'
p7687
asS'1988'
p7688
(lp7689
S'train'
p7690
aS'WIKI'
p7691
aS'The_Gay_Science'
p7692
asS'1989'
p7693
(lp7694
S'train'
p7695
aS'WIKI'
p7696
aS'The_Gift_(book)'
p7697
asS'568'
p7698
(lp7699
S'train'
p7700
aS'WIKI'
p7701
aS'Dorr_Rebellion'
p7702
asS'560'
p7703
(lp7704
S'train'
p7705
aS'WIKI'
p7706
aS'Don_Quixote'
p7707
asS'561'
p7708
(lp7709
S'train'
p7710
aS'WIKI'
p7711
aS'Dona_Flor_and_Her_Two_Husbands'
p7712
asS'563'
p7713
(lp7714
S'train'
p7715
aS'WIKI'
p7716
aS'Donatism'
p7717
asS'565'
p7718
(lp7719
S'train'
p7720
aS'WIKI'
p7721
aS'Doppler_effect'
p7722
asS'566'
p7723
(lp7724
S'train'
p7725
aS'WIKI'
p7726
aS'Doris_Lessing'
p7727
asS'567'
p7728
(lp7729
S'train'
p7730
aS'WIKI'
p7731
aS'Dorothea_Lange'
p7732
asS'1189'
p7733
(lp7734
S'train'
p7735
aS'WIKI'
p7736
aS'Krishna'
p7737
asS'1186'
p7738
(lp7739
S'train'
p7740
aS'WIKI'
p7741
aS'Knights_of_Labor'
p7742
asS'1187'
p7743
(lp7744
S'train'
p7745
aS'WIKI'
p7746
aS'Knowledge'
p7747
asS'1184'
p7748
(lp7749
S'train'
p7750
aS'WIKI'
p7751
aS'Kingsley_Amis'
p7752
asS'1182'
p7753
(lp7754
S'train'
p7755
aS'WIKI'
p7756
aS'Kinetic_energy'
p7757
asS'1183'
p7758
(lp7759
S'train'
p7760
aS'WIKI'
p7761
aS"King_Philip's_War"
p7762
asS'726'
p7763
(lp7764
S'train'
p7765
aS'WIKI'
p7766
aS'Frantz_Fanon'
p7767
asS'725'
p7768
(lp7769
S'train'
p7770
aS'WIKI'
p7771
aS'Frans_Hals'
p7772
asS'1748'
p7773
(lp7774
S'train'
p7775
aS'WIKI'
p7776
aS'Russia'
p7777
asS'1749'
p7778
(lp7779
S'train'
p7780
aS'WIKI'
p7781
aS'Ruth_Benedict'
p7782
asS'720'
p7783
(lp7784
S'train'
p7785
aS'WIKI'
p7786
aS'Francois_Mitterrand'
p7787
asS'721'
p7788
(lp7789
S'train'
p7790
aS'WIKI'
p7791
aS'Frank_Gehry'
p7792
asS'1745'
p7793
(lp7794
S'train'
p7795
aS'WIKI'
p7796
aS'Rudyard_Kipling'
p7797
asS'1740'
p7798
(lp7799
S'train'
p7800
aS'WIKI'
p7801
aS'Ronald_Coase'
p7802
asS'1741'
p7803
(lp7804
S'train'
p7805
aS'WIKI'
p7806
aS'Rosh_Hashanah'
p7807
asS'1742'
p7808
(lp7809
S'train'
p7810
aS'WIKI'
p7811
aS'Rubaiyat_of_Omar_Khayyam'
p7812
asS'1743'
p7813
(lp7814
S'train'
p7815
aS'WIKI'
p7816
aS'Ruben_Dario'
p7817
asS'1165'
p7818
(lp7819
S'train'
p7820
aS'WIKI'
p7821
aS'Kansas'
p7822
asS'1166'
p7823
(lp7824
S'train'
p7825
aS'WIKI'
p7826
aS'Karl_Jaspers'
p7827
asS'1167'
p7828
(lp7829
S'train'
p7830
aS'WIKI'
p7831
aS'Karl_Marx'
p7832
asS'1163'
p7833
(lp7834
S'train'
p7835
aS'WIKI'
p7836
aS'Kamakura_shogunate'
p7837
asS'1168'
p7838
(lp7839
S'train'
p7840
aS'WIKI'
p7841
aS'Karl_Popper'
p7842
asS'1169'
p7843
(lp7844
S'train'
p7845
aS'WIKI'
p7846
aS'Kate_Chopin'
p7847
asS'48'
p7848
(lp7849
S'train'
p7850
aS'WIKI'
p7851
aS'Adam_Smith'
p7852
asS'47'
p7853
(lp7854
S'train'
p7855
aS'WIKI'
p7856
aS'Adam_Bede'
p7857
asS'44'
p7858
(lp7859
S'train'
p7860
aS'WIKI'
p7861
aS'Action_(physics)'
p7862
asS'45'
p7863
(lp7864
S'train'
p7865
aS'WIKI'
p7866
aS'Activation_energy'
p7867
asS'42'
p7868
(lp7869
S'train'
p7870
aS'WIKI'
p7871
aS'Acid'
p7872
asS'43'
p7873
(lp7874
S'train'
p7875
aS'WIKI'
p7876
aS'Actin'
p7877
asS'1298'
p7878
(lp7879
S'train'
p7880
aS'WIKI'
p7881
aS'Main_Street_(novel)'
p7882
asS'1299'
p7883
(lp7884
S'train'
p7885
aS'WIKI'
p7886
aS'Maine'
p7887
asS'1560'
p7888
(lp7889
S'train'
p7890
aS'WIKI'
p7891
aS'Pequot_War'
p7892
asS'1293'
p7893
(lp7894
S'train'
p7895
aS'WIKI'
p7896
aS'Magnetic_field'
p7897
asS'1290'
p7898
(lp7899
S'train'
p7900
aS'WIKI'
p7901
aS'Maggie:_A_Girl_of_the_Streets'
p7902
asS'1291'
p7903
(lp7904
S'train'
p7905
aS'WIKI'
p7906
aS'Magna_Carta'
p7907
asS'1564'
p7908
(lp7909
S'train'
p7910
aS'WIKI'
p7911
aS'Persephone'
p7912
asS'1565'
p7913
(lp7914
S'train'
p7915
aS'WIKI'
p7916
aS'Perseus'
p7917
asS'1566'
p7918
(lp7919
S'train'
p7920
aS'WIKI'
p7921
aS'Persian_language'
p7922
asS'477'
p7923
(lp7924
S'train'
p7925
aS'WIKI'
p7926
aS'Crown_ether'
p7927
asS'1713'
p7928
(lp7929
S'train'
p7930
aS'WIKI'
p7931
aS'Rigoletto'
p7932
asS'474'
p7933
(lp7934
S'train'
p7935
aS'WIKI'
p7936
aS'Critique_of_Pure_Reason'
p7937
asS'1712'
p7938
(lp7939
S'train'
p7940
aS'WIKI'
p7941
aS'Riemann_zeta_function'
p7942
asS'475'
p7943
(lp7944
S'train'
p7945
aS'WIKI'
p7946
aS'Crito'
p7947
asS'793'
p7948
(lp7949
S'train'
p7950
aS'WIKI'
p7951
aS'Gerard_Manley_Hopkins'
p7952
asS'1201'
p7953
(lp7954
S'train'
p7955
aS'WIKI'
p7956
aS"Lady_Windermere's_Fan"
p7957
asS'1366'
p7958
(lp7959
S'train'
p7960
aS'WIKI'
p7961
aS'Michel_Foucault'
p7962
asS'1367'
p7963
(lp7964
S'train'
p7965
aS'WIKI'
p7966
aS'Michelangelo'
p7967
asS'470'
p7968
(lp7969
S'train'
p7970
aS'WIKI'
p7971
aS'Crime_and_Punishment'
p7972
asS'1365'
p7973
(lp7974
S'train'
p7975
aS'WIKI'
p7976
aS'Michael_reaction'
p7977
asS'1362'
p7978
(lp7979
S'train'
p7980
aS'WIKI'
p7981
aS'Mica'
p7982
asS'1363'
p7983
(lp7984
S'train'
p7985
aS'WIKI'
p7986
aS'Micelle'
p7987
asS'1360'
p7988
(lp7989
S'train'
p7990
aS'WIKI'
p7991
aS'Methodism'
p7992
asS'1361'
p7993
(lp7994
S'train'
p7995
aS'WIKI'
p7996
aS'Mexico'
p7997
asS'478'
p7998
(lp7999
S'train'
p8000
aS'WIKI'
p8001
aS'Cuba'
p8002
asS'479'
p8003
(lp8004
S'train'
p8005
aS'WIKI'
p8006
aS'Cubism'
p8007
asS'1369'
p8008
(lp8009
S'train'
p8010
aS'WIKI'
p8011
aS'Microtubule'
p8012
as.