(dp1
S'103949'
p2
(lp3
S'train'
p4
aS'History'
p5
aS'Battle_of_Sedan_(1870)'
p6
asS'114071'
p7
(lp8
S'train'
p9
aS'History'
p10
aS'Battle_of_Zama'
p11
asS'114073'
p12
(lp13
S'train'
p14
aS'History'
p15
aS'Canada'
p16
asS'117671'
p17
(lp18
S'train'
p19
aS'History'
p20
aS'Lake_Ladoga'
p21
asS'193359'
p22
(lp23
S'train'
p24
aS'History'
p25
aS'Chateau_Louis_XIV'
p26
asS'190801'
p27
(lp28
S'train'
p29
aS'History'
p30
aS'Gunpowder_Plot'
p31
asS'197859'
p32
(lp33
S'train'
p34
aS'History'
p35
aS'Hadrian'
p36
asS'190809'
p37
(lp38
S'train'
p39
aS'History'
p40
aS'Richard_Nixon'
p41
asS'107395'
p42
(lp43
S'train'
p44
aS'History'
p45
aS'Paris'
p46
asS'110957'
p47
(lp48
S'train'
p49
aS'History'
p50
aS'Thaddeus_Stevens'
p51
asS'116413'
p52
(lp53
S'train'
p54
aS'History'
p55
aS'Antonio_de_Oliveira_Salazar'
p56
asS'189371'
p57
(lp58
S'train'
p59
aS'History'
p60
aS'First_Crusade'
p61
asS'116417'
p62
(lp63
S'train'
p64
aS'History'
p65
aS'Domitian'
p66
asS'107861'
p67
(lp68
S'train'
p69
aS'History'
p70
aS'Jamaica'
p71
asS'116419'
p72
(lp73
S'train'
p74
aS'History'
p75
aS'Henry_Cabot_Lodge,_Jr.'
p76
asS'205151'
p77
(lp78
S'train'
p79
aS'History:Europe'
p80
aS'Pope_Julius_II'
p81
asS'205285'
p82
(lp83
S'train'
p84
aS'History:Europe'
p85
aS'Pius'
p86
asS'101161'
p87
(lp88
S'train'
p89
aS'History'
p90
aS'Alfredo_Stroessner'
p91
asS'2313'
p92
(lp93
S'train'
p94
aS'History'
p95
aS'Trent_Affair'
p96
asS'2311'
p97
(lp98
S'train'
p99
aS'History'
p100
aS'Battle_of_the_Thames'
p101
asS'201431'
p102
(lp103
S'train'
p104
aS'History:American'
p105
aS'War_of_1812'
p106
asS'191461'
p107
(lp108
S'train'
p109
aS'History'
p110
aS'Battle_of_Antietam'
p111
asS'106359'
p112
(lp113
S'train'
p114
aS'History'
p115
aS'Tecumseh'
p116
asS'3777'
p117
(lp118
S'train'
p119
aS'History'
p120
aS'Porfirio_Diaz'
p121
asS'3775'
p122
(lp123
S'train'
p124
aS'History'
p125
aS'Julius_Nyerere'
p126
asS'191469'
p127
(lp128
S'train'
p129
aS'History'
p130
aS'Italy'
p131
asS'121231'
p132
(lp133
S'train'
p134
aS'History'
p135
aS'Otto_I,_Holy_Roman_Emperor'
p136
asS'117257'
p137
(lp138
S'train'
p139
aS'History'
p140
aS'Richard_I_of_England'
p141
asS'110927'
p142
(lp143
S'train'
p144
aS'History'
p145
aS'Treaty_of_Waitangi'
p146
asS'102841'
p147
(lp148
S'train'
p149
aS'History'
p150
aS'Otto_I,_Holy_Roman_Emperor'
p151
asS'102847'
p152
(lp153
S'train'
p154
aS'History'
p155
aS'Whiskey_Rebellion'
p156
asS'111687'
p157
(lp158
S'train'
p159
aS'History'
p160
aS'Finland'
p161
asS'196097'
p162
(lp163
S'train'
p164
aS'History'
p165
aS'Chile'
p166
asS'191261'
p167
(lp168
S'train'
p169
aS'History'
p170
aS'Ku_Klux_Klan'
p171
asS'200893'
p172
(lp173
S'train'
p174
aS'History:Europe'
p175
aS"Thirty_Years'_War"
p176
asS'101013'
p177
(lp178
S'train'
p179
aS'History'
p180
aS'Charles_de_Gaulle'
p181
asS'113579'
p182
(lp183
S'train'
p184
aS'History'
p185
aS'Vlad_the_Impaler'
p186
asS'190027'
p187
(lp188
S'train'
p189
aS'History'
p190
aS'Kublai_Khan'
p191
asS'109811'
p192
(lp193
S'train'
p194
aS'History'
p195
aS'Aaron_Burr'
p196
asS'104719'
p197
(lp198
S'train'
p199
aS'History'
p200
aS'Henry_II_of_England'
p201
asS'193297'
p202
(lp203
S'train'
p204
aS'History'
p205
aS'Nation_of_Islam'
p206
asS'102939'
p207
(lp208
S'train'
p209
aS'History'
p210
aS'Thailand'
p211
asS'201945'
p212
(lp213
S'train'
p214
aS'History:Europe'
p215
aS'Spain'
p216
asS'192557'
p217
(lp218
S'train'
p219
aS'History'
p220
aS'Ethiopia'
p221
asS'195209'
p222
(lp223
S'train'
p224
aS'History'
p225
aS'Battles_of_Saratoga'
p226
asS'2043'
p227
(lp228
S'train'
p229
aS'History'
p230
aS'Horace_Greeley'
p231
asS'2041'
p232
(lp233
S'train'
p234
aS'History'
p235
aS'Battle_of_Chancellorsville'
p236
asS'195207'
p237
(lp238
S'train'
p239
aS'History'
p240
aS'Battle_of_Adrianople'
p241
asS'193031'
p242
(lp243
S'train'
p244
aS'History'
p245
aS'Deng_Xiaoping'
p246
asS'123243'
p247
(lp248
S'train'
p249
aS'History'
p250
aS'Nikita_Khrushchev'
p251
asS'198497'
p252
(lp253
S'train'
p254
aS'History'
p255
aS'Georgia_(country)'
p256
asS'122769'
p257
(lp258
S'train'
p259
aS'History'
p260
aS'Ireland'
p261
asS'198495'
p262
(lp263
S'train'
p264
aS'History'
p265
aS'Grover_Cleveland'
p266
asS'107929'
p267
(lp268
S'train'
p269
aS'History'
p270
aS'Taiping_Rebellion'
p271
asS'197455'
p272
(lp273
S'train'
p274
aS'History'
p275
aS"Thirty_Years'_War"
p276
asS'194329'
p277
(lp278
S'train'
p279
aS'History'
p280
aS'South_Africa'
p281
asS'3519'
p282
(lp283
S'train'
p284
aS'History'
p285
aS'Nicolae_Ceausescu'
p286
asS'198123'
p287
(lp288
S'train'
p289
aS'History'
p290
aS'Louis_XIV_of_France'
p291
asS'102629'
p292
(lp293
S'train'
p294
aS'History'
p295
aS'Tammany_Hall'
p296
asS'211557'
p297
(lp298
S'train'
p299
aS'History'
p300
aS'Rainer_Maria_Rilke'
p301
asS'2689'
p302
(lp303
S'train'
p304
aS'History'
p305
aS'Nestor_(mythology)'
p306
asS'113771'
p307
(lp308
S'train'
p309
aS'History'
p310
aS'Battle_of_Hastings'
p311
asS'110525'
p312
(lp313
S'train'
p314
aS'History'
p315
aS'North_Carolina'
p316
asS'102151'
p317
(lp318
S'train'
p319
aS'History'
p320
aS'Pompey'
p321
asS'203387'
p322
(lp323
S'train'
p324
aS'History:American'
p325
aS'Boston'
p326
asS'112131'
p327
(lp328
S'train'
p329
aS'History'
p330
aS'Alexander_II_of_Russia'
p331
asS'123811'
p332
(lp333
S'train'
p334
aS'History'
p335
aS'Mughal_Empire'
p336
asS'102157'
p337
(lp338
S'train'
p339
aS'History'
p340
aS'Denmark'
p341
asS'3019'
p342
(lp343
S'train'
p344
aS'History'
p345
aS'Edward_the_Confessor'
p346
asS'190157'
p347
(lp348
S'train'
p349
aS'History'
p350
aS'Ming_Dynasty'
p351
asS'1621'
p352
(lp353
S'train'
p354
aS'History'
p355
aS'Franklin_Pierce'
p356
asS'121705'
p357
(lp358
S'train'
p359
aS'History'
p360
aS'Maryland'
p361
asS'198013'
p362
(lp363
S'train'
p364
aS'History'
p365
aS'Ming_Dynasty'
p366
asS'118801'
p367
(lp368
S'train'
p369
aS'History'
p370
aS'Jameson_Raid'
p371
asS'210955'
p372
(lp373
S'train'
p374
aS'History'
p375
aS'New_Mexico'
p376
asS'210409'
p377
(lp378
S'train'
p379
aS'History'
p380
aS'Vienna'
p381
asS'108959'
p382
(lp383
S'train'
p384
aS'History'
p385
aS'Carthage'
p386
asS'202143'
p387
(lp388
S'train'
p389
aS'History:British'
p390
aS'Charles_I_of_England'
p391
asS'2861'
p392
(lp393
S'train'
p394
aS'History'
p395
aS'Charles_V,_Holy_Roman_Emperor'
p396
asS'209859'
p397
(lp398
S'train'
p399
aS'History'
p400
aS'Laos'
p401
asS'108821'
p402
(lp403
S'train'
p404
aS'History'
p405
aS'Benedict_Arnold'
p406
asS'123709'
p407
(lp408
S'train'
p409
aS'History'
p410
aS'John_Adams'
p411
asS'202383'
p412
(lp413
S'train'
p414
aS'History:World'
p415
aS'Mali_Empire'
p416
asS'122389'
p417
(lp418
S'train'
p419
aS'History'
p420
aS'First_Battle_of_Bull_Run'
p421
asS'207287'
p422
(lp423
S'train'
p424
aS'History'
p425
aS'Constantine_the_Great'
p426
asS'197079'
p427
(lp428
S'train'
p429
aS'History'
p430
aS"Thirty_Years'_War"
p431
asS'207285'
p432
(lp433
S'train'
p434
aS'History'
p435
aS'Greece'
p436
asS'122141'
p437
(lp438
S'train'
p439
aS'History'
p440
aS'Texas'
p441
asS'207045'
p442
(lp443
S'train'
p444
aS'History'
p445
aS'Cairo'
p446
asS'3341'
p447
(lp448
S'train'
p449
aS'History'
p450
aS'Battle_of_Leipzig'
p451
asS'108487'
p452
(lp453
S'train'
p454
aS'History'
p455
aS"Peasants'_Revolt"
p456
asS'208897'
p457
(lp458
S'train'
p459
aS'History'
p460
aS'Carthage'
p461
asS'1817'
p462
(lp463
S'train'
p464
aS'History'
p465
aS'Henry_Cabot_Lodge,_Jr.'
p466
asS'109449'
p467
(lp468
S'train'
p469
aS'History'
p470
aS'Frederick_the_Great'
p471
asS'103395'
p472
(lp473
S'train'
p474
aS'History'
p475
aS'Maria_Theresa'
p476
asS'202035'
p477
(lp478
S'train'
p479
aS'History:American'
p480
aS'Georgia_(U.S._state)'
p481
asS'193179'
p482
(lp483
S'train'
p484
aS'History'
p485
aS'Ivan_the_Terrible'
p486
asS'123381'
p487
(lp488
S'train'
p489
aS'History'
p490
aS'Tokugawa_shogunate'
p491
asS'207601'
p492
(lp493
S'train'
p494
aS'History'
p495
aS'Henry_IV_of_France'
p496
asS'189817'
p497
(lp498
S'train'
p499
aS'History'
p500
aS'Andrew_Jackson'
p501
asS'212143'
p502
(lp503
S'train'
p504
aS'History'
p505
aS'England'
p506
asS'1575'
p507
(lp508
S'train'
p509
aS'History'
p510
aS'Francis_Marion'
p511
asS'209637'
p512
(lp513
S'train'
p514
aS'History'
p515
aS'Quetzalcoatl'
p516
asS'193219'
p517
(lp518
S'train'
p519
aS'History'
p520
aS'Maori_people'
p521
asS'201609'
p522
(lp523
S'train'
p524
aS'History:Europe'
p525
aS'Portugal'
p526
asS'207263'
p527
(lp528
S'train'
p529
aS'History'
p530
aS'Timur'
p531
asS'111941'
p532
(lp533
S'train'
p534
aS'History'
p535
aS'Knights_of_Labor'
p536
asS'194799'
p537
(lp538
S'train'
p539
aS'History'
p540
aS'Paraguayan_War'
p541
asS'114045'
p542
(lp543
S'train'
p544
aS'History'
p545
aS'Otto_von_Bismarck'
p546
asS'103973'
p547
(lp548
S'train'
p549
aS'History'
p550
aS'Rum_Rebellion'
p551
asS'103975'
p552
(lp553
S'train'
p554
aS'History'
p555
aS'Getulio_Vargas'
p556
asS'109065'
p557
(lp558
S'train'
p559
aS'History'
p560
aS'Philip_II_of_Spain'
p561
asS'4037'
p562
(lp563
S'train'
p564
aS'History'
p565
aS'Treaty_of_Tordesillas'
p566
asS'190813'
p567
(lp568
S'train'
p569
aS'History'
p570
aS'Whiskey_Rebellion'
p571
asS'209701'
p572
(lp573
S'train'
p574
aS'History'
p575
aS'South_Africa'
p576
asS'197843'
p577
(lp578
S'train'
p579
aS'History'
p580
aS'Syria'
p581
asS'118485'
p582
(lp583
S'train'
p584
aS'History'
p585
aS'Paraguay'
p586
asS'197849'
p587
(lp588
S'train'
p589
aS'History'
p590
aS'Mali_Empire'
p591
asS'193361'
p592
(lp593
S'train'
p594
aS'History'
p595
aS'Japan'
p596
asS'107891'
p597
(lp598
S'train'
p599
aS'History'
p600
aS'Justinian_I'
p601
asS'193365'
p602
(lp603
S'train'
p604
aS'History'
p605
aS'Edward_the_Confessor'
p606
asS'193367'
p607
(lp608
S'train'
p609
aS'History'
p610
aS'Plessy_v._Ferguson'
p611
asS'193671'
p612
(lp613
S'train'
p614
aS'History'
p615
aS'Thebes,_Greece'
p616
asS'107381'
p617
(lp618
S'train'
p619
aS'History'
p620
aS'Magna_Carta'
p621
asS'110405'
p622
(lp623
S'train'
p624
aS'History'
p625
aS'Battle_of_Zama'
p626
asS'209445'
p627
(lp628
S'train'
p629
aS'History'
p630
aS'Seattle'
p631
asS'197787'
p632
(lp633
S'train'
p634
aS'History'
p635
aS'Cuba'
p636
asS'2309'
p637
(lp638
S'train'
p639
aS'History'
p640
aS'Hartford_Convention'
p641
asS'114447'
p642
(lp643
S'train'
p644
aS'History'
p645
aS'Madagascar'
p646
asS'101155'
p647
(lp648
S'train'
p649
aS'History'
p650
aS'Battle_of_Kings_Mountain'
p651
asS'108635'
p652
(lp653
S'train'
p654
aS'History'
p655
aS'Football_War'
p656
asS'191451'
p657
(lp658
S'train'
p659
aS'History'
p660
aS'Idaho'
p661
asS'100957'
p662
(lp663
S'train'
p664
aS'History'
p665
aS'Otto_I,_Holy_Roman_Emperor'
p666
asS'116333'
p667
(lp668
S'train'
p669
aS'History'
p670
aS'Franklin_Pierce'
p671
asS'204721'
p672
(lp673
S'train'
p674
aS'History:British'
p675
aS'Elizabeth_I_of_England'
p676
asS'204725'
p677
(lp678
S'train'
p679
aS'History:American'
p680
aS'Wisconsin'
p681
asS'193783'
p682
(lp683
S'train'
p684
aS'History'
p685
aS'Great_Northern_War'
p686
asS'193781'
p687
(lp688
S'train'
p689
aS'History'
p690
aS'Treaty_of_Brest-Litovsk'
p691
asS'191219'
p692
(lp693
S'train'
p694
aS'History'
p695
aS'Stephen_A._Douglas'
p696
asS'121951'
p697
(lp698
S'train'
p699
aS'History'
p700
aS'Francois_Mitterrand'
p701
asS'122609'
p702
(lp703
S'train'
p704
aS'History'
p705
aS'Albania'
p706
asS'190039'
p707
(lp708
S'train'
p709
aS'History'
p710
aS'Prague_Spring'
p711
asS'2451'
p712
(lp713
S'train'
p714
aS'History'
p715
aS'Darius_I'
p716
asS'2453'
p717
(lp718
S'train'
p719
aS'History'
p720
aS'Empedocles'
p721
asS'106503'
p722
(lp723
S'train'
p724
aS'History'
p725
aS'Congress_of_Vienna'
p726
asS'102943'
p727
(lp728
S'train'
p729
aS'History'
p730
aS'Pakistan'
p731
asS'102947'
p732
(lp733
S'train'
p734
aS'History'
p735
aS'Gaspee_Affair'
p736
asS'102949'
p737
(lp738
S'train'
p739
aS'History'
p740
aS'Ivan_the_Terrible'
p741
asS'3699'
p742
(lp743
S'train'
p744
aS'History'
p745
aS'Khmer_Empire'
p746
asS'3693'
p747
(lp748
S'train'
p749
aS'History'
p750
aS'Saladin'
p751
asS'3695'
p752
(lp753
S'train'
p754
aS'History'
p755
aS'Han_dynasty'
p756
asS'117331'
p757
(lp758
S'train'
p759
aS'History'
p760
aS'Seattle'
p761
asS'3697'
p762
(lp763
S'train'
p764
aS'History'
p765
aS'Ethiopia'
p766
asS'104655'
p767
(lp768
S'train'
p769
aS'History'
p770
aS'Battle_of_Hastings'
p771
asS'205255'
p772
(lp773
S'train'
p774
aS'History:American'
p775
aS'Texas'
p776
asS'192789'
p777
(lp778
S'train'
p779
aS'History'
p780
aS'Daniel_Webster'
p781
asS'210097'
p782
(lp783
S'train'
p784
aS'History'
p785
aS'Pan_(god)'
p786
asS'3527'
p787
(lp788
S'train'
p789
aS'History'
p790
aS'Portugal'
p791
asS'3523'
p792
(lp793
S'train'
p794
aS'History'
p795
aS'Louis_XI_of_France'
p796
asS'190493'
p797
(lp798
S'train'
p799
aS'History'
p800
aS'First_Crusade'
p801
asS'3529'
p802
(lp803
S'train'
p804
aS'History'
p805
aS'Zollverein'
p806
asS'195305'
p807
(lp808
S'train'
p809
aS'History'
p810
aS'Madagascar'
p811
asS'118925'
p812
(lp813
S'train'
p814
aS'History'
p815
aS'Prague_Spring'
p816
asS'210327'
p817
(lp818
S'train'
p819
aS'History'
p820
aS'Henry_III_of_France'
p821
asS'106389'
p822
(lp823
S'train'
p824
aS'History'
p825
aS'Plessy_v._Ferguson'
p826
asS'102541'
p827
(lp828
S'train'
p829
aS'History'
p830
aS'Crimean_War'
p831
asS'123821'
p832
(lp833
S'train'
p834
aS'History'
p835
aS'Alexander_the_Great'
p836
asS'108721'
p837
(lp838
S'train'
p839
aS'History'
p840
aS'Battle_of_Trenton'
p841
asS'196643'
p842
(lp843
S'train'
p844
aS'History'
p845
aS'Herbert_Hoover'
p846
asS'107701'
p847
(lp848
S'train'
p849
aS'History'
p850
aS"King_Philip's_War"
p851
asS'203159'
p852
(lp853
S'train'
p854
aS'History:British'
p855
aS'Charles_I_of_England'
p856
asS'190147'
p857
(lp858
S'train'
p859
aS'History'
p860
aS'Oliver_Cromwell'
p861
asS'108931'
p862
(lp863
S'train'
p864
aS'History'
p865
aS'Burma'
p866
asS'3237'
p867
(lp868
S'train'
p869
aS'History'
p870
aS'Battle_of_Kings_Mountain'
p871
asS'3235'
p872
(lp873
S'train'
p874
aS'History'
p875
aS'Girolamo_Savonarola'
p876
asS'194269'
p877
(lp878
S'train'
p879
aS'History'
p880
aS'Benjamin_Franklin'
p881
asS'1963'
p882
(lp883
S'train'
p884
aS'History'
p885
aS'Stephen_A._Douglas'
p886
asS'118811'
p887
(lp888
S'train'
p889
aS'History'
p890
aS'Suleiman_the_Magnificent'
p891
asS'195013'
p892
(lp893
S'train'
p894
aS'History'
p895
aS'War_of_the_Pacific'
p896
asS'113897'
p897
(lp898
S'train'
p899
aS'History'
p900
aS'Alexander_II_of_Russia'
p901
asS'211941'
p902
(lp903
S'train'
p904
aS'History'
p905
aS'Uruguay'
p906
asS'210439'
p907
(lp908
S'train'
p909
aS'History'
p910
aS'Haiti'
p911
asS'123735'
p912
(lp913
S'train'
p914
aS'History'
p915
aS'Timur'
p916
asS'202605'
p917
(lp918
S'train'
p919
aS'History:World'
p920
aS'Timur'
p921
asS'108853'
p922
(lp923
S'train'
p924
aS'History'
p925
aS'Tennessee'
p926
asS'209841'
p927
(lp928
S'train'
p929
aS'History'
p930
aS'Munich'
p931
asS'203839'
p932
(lp933
S'train'
p934
aS'History:Europe'
p935
aS'Charles_XII_of_Sweden'
p936
asS'108031'
p937
(lp938
S'train'
p939
aS'History'
p940
aS'Great_Northern_War'
p941
asS'108033'
p942
(lp943
S'train'
p944
aS'History'
p945
aS'Barry_Goldwater'
p946
asS'121607'
p947
(lp948
S'train'
p949
aS'History'
p950
aS'Philip_II_of_Spain'
p951
asS'189957'
p952
(lp953
S'train'
p954
aS'History'
p955
aS'Battle_of_Antietam'
p956
asS'107679'
p957
(lp958
S'train'
p959
aS'History'
p960
aS'Louis_XI_of_France'
p961
asS'189953'
p962
(lp963
S'train'
p964
aS'History'
p965
aS'Philip_II_of_Spain'
p966
asS'122157'
p967
(lp968
S'train'
p969
aS'History'
p970
aS'Umayyad_Caliphate'
p971
asS'115491'
p972
(lp973
S'train'
p974
aS'History'
p975
aS'Friedrich_Engels'
p976
asS'202737'
p977
(lp978
S'train'
p979
aS'History:Europe'
p980
aS'Ivan_the_Terrible'
p981
asS'109297'
p982
(lp983
S'train'
p984
aS'History'
p985
aS'Benito_Juarez'
p986
asS'103389'
p987
(lp988
S'train'
p989
aS'History'
p990
aS'War_of_the_Polish_Succession'
p991
asS'196427'
p992
(lp993
S'train'
p994
aS'History'
p995
aS'Joseph_Stalin'
p996
asS'111749'
p997
(lp998
S'train'
p999
aS'History'
p1000
aS'Alfred_the_Great'
p1001
asS'192947'
p1002
(lp1003
S'train'
p1004
aS'History'
p1005
aS'Rutherford_B._Hayes'
p1006
asS'1545'
p1007
(lp1008
S'train'
p1009
aS'History'
p1010
aS'Jefferson_Davis'
p1011
asS'106429'
p1012
(lp1013
S'train'
p1014
aS'History'
p1015
aS'Sparta'
p1016
asS'1727'
p1017
(lp1018
S'train'
p1019
aS'History'
p1020
aS'John_Quincy_Adams'
p1021
asS'111829'
p1022
(lp1023
S'train'
p1024
aS'History'
p1025
aS"Bishops'_Wars"
p1026
asS'109855'
p1027
(lp1028
S'train'
p1029
aS'History'
p1030
aS'Nicaragua'
p1031
asS'111825'
p1032
(lp1033
S'train'
p1034
aS'History'
p1035
aS'Concordat_of_Worms'
p1036
asS'2845'
p1037
(lp1038
S'train'
p1039
aS'History'
p1040
aS'Otto_I,_Holy_Roman_Emperor'
p1041
asS'189777'
p1042
(lp1043
S'train'
p1044
aS'History'
p1045
aS'Franco-Prussian_War'
p1046
asS'109673'
p1047
(lp1048
S'train'
p1049
aS'History'
p1050
aS'John,_King_of_England'
p1051
asS'109675'
p1052
(lp1053
S'train'
p1054
aS'History'
p1055
aS'Calvin_Coolidge'
p1056
asS'193205'
p1057
(lp1058
S'train'
p1059
aS'History'
p1060
aS'New_York_City'
p1061
asS'196331'
p1062
(lp1063
S'train'
p1064
aS'History'
p1065
aS'Haiti'
p1066
asS'119039'
p1067
(lp1068
S'train'
p1069
aS'History'
p1070
aS'Council_of_Trent'
p1071
asS'119071'
p1072
(lp1073
S'train'
p1074
aS'History'
p1075
aS'Vilfredo_Pareto'
p1076
asS'207255'
p1077
(lp1078
S'train'
p1079
aS'History'
p1080
aS'Ku_Klux_Klan'
p1081
asS'115273'
p1082
(lp1083
S'train'
p1084
aS'History'
p1085
aS'Ecuador'
p1086
asS'208979'
p1087
(lp1088
S'train'
p1089
aS'History'
p1090
aS'Argentina'
p1091
asS'3827'
p1092
(lp1093
S'train'
p1094
aS'History'
p1095
aS'Babur'
p1096
asS'189173'
p1097
(lp1098
S'train'
p1099
aS'History'
p1100
aS'Jefferson_Davis'
p1101
asS'3823'
p1102
(lp1103
S'train'
p1104
aS'History'
p1105
aS'Patrice_Lumumba'
p1106
asS'193377'
p1107
(lp1108
S'train'
p1109
aS'History'
p1110
aS'Thomas_Jefferson'
p1111
asS'109071'
p1112
(lp1113
S'train'
p1114
aS'History'
p1115
aS'State_of_Franklin'
p1116
asS'193373'
p1117
(lp1118
S'train'
p1119
aS'History'
p1120
aS'Toyotomi_Hideyoshi'
p1121
asS'112847'
p1122
(lp1123
S'train'
p1124
aS'History'
p1125
aS'Charles_XII_of_Sweden'
p1126
asS'193379'
p1127
(lp1128
S'train'
p1129
aS'History'
p1130
aS'Second_Boer_War'
p1131
asS'4281'
p1132
(lp1133
S'train'
p1134
aS'History'
p1135
aS'Java'
p1136
asS'103567'
p1137
(lp1138
S'train'
p1139
aS'History'
p1140
aS'Kalmar_Union'
p1141
asS'209719'
p1142
(lp1143
S'train'
p1144
aS'History'
p1145
aS'Morocco'
p1146
asS'4285'
p1147
(lp1148
S'train'
p1149
aS'History'
p1150
aS'Lajos_Kossuth'
p1151
asS'201701'
p1152
(lp1153
S'train'
p1154
aS'History:Europe'
p1155
aS'Louis_XIV_of_France'
p1156
asS'109279'
p1157
(lp1158
S'train'
p1159
aS'History'
p1160
aS'Georges_Clemenceau'
p1161
asS'197873'
p1162
(lp1163
S'train'
p1164
aS'History'
p1165
aS'Ottoman_Empire'
p1166
asS'103363'
p1167
(lp1168
S'train'
p1169
aS'History'
p1170
aS'Fourth_Crusade'
p1171
asS'120381'
p1172
(lp1173
S'train'
p1174
aS'History'
p1175
aS'Aaron_Burr'
p1176
asS'189393'
p1177
(lp1178
S'train'
p1179
aS'History'
p1180
aS'Battle_of_the_Bulge'
p1181
asS'189551'
p1182
(lp1183
S'train'
p1184
aS'History'
p1185
aS'Peace_of_Westphalia'
p1186
asS'189553'
p1187
(lp1188
S'train'
p1189
aS'History'
p1190
aS'Simon_Bolivar'
p1191
asS'100727'
p1192
(lp1193
S'train'
p1194
aS'History'
p1195
aS'Caligula'
p1196
asS'189481'
p1197
(lp1198
S'train'
p1199
aS'History'
p1200
aS'Herbert_Hoover'
p1201
asS'201893'
p1202
(lp1203
S'train'
p1204
aS'History:Europe'
p1205
aS'Alexander_II_of_Russia'
p1206
asS'3755'
p1207
(lp1208
S'train'
p1209
aS'History'
p1210
aS'Yellow_Turban_Rebellion'
p1211
asS'191445'
p1212
(lp1213
S'train'
p1214
aS'History'
p1215
aS'Joseph_Stalin'
p1216
asS'100929'
p1217
(lp1218
S'train'
p1219
aS'History'
p1220
aS'Rwandan_Genocide'
p1221
asS'119845'
p1222
(lp1223
S'train'
p1224
aS'History'
p1225
aS'Muhammad_Ali_of_Egypt'
p1226
asS'204867'
p1227
(lp1228
S'train'
p1229
aS'History:Europe'
p1230
aS'East_Germany'
p1231
asS'101039'
p1232
(lp1233
S'train'
p1234
aS'History'
p1235
aS'Zollverein'
p1236
asS'121947'
p1237
(lp1238
S'train'
p1239
aS'History'
p1240
aS'Josip_Broz_Tito'
p1241
asS'193551'
p1242
(lp1243
S'train'
p1244
aS'History'
p1245
aS'Charles_de_Gaulle'
p1246
asS'194013'
p1247
(lp1248
S'train'
p1249
aS'History'
p1250
aS"Peasants'_Revolt"
p1251
asS'194011'
p1252
(lp1253
S'train'
p1254
aS'History'
p1255
aS'Pennsylvania'
p1256
asS'104735'
p1257
(lp1258
S'train'
p1259
aS'History'
p1260
aS'Battle_of_Bosworth_Field'
p1261
asS'2423'
p1262
(lp1263
S'train'
p1264
aS'History'
p1265
aS'Maya_civilization'
p1266
asS'211331'
p1267
(lp1268
S'train'
p1269
aS'History'
p1270
aS'Crimean_War'
p1271
asS'208085'
p1272
(lp1273
S'train'
p1274
aS'History'
p1275
aS'John_Maynard_Keynes'
p1276
asS'3689'
p1277
(lp1278
S'train'
p1279
aS'History'
p1280
aS'Robert_Peel'
p1281
asS'3687'
p1282
(lp1283
S'train'
p1284
aS'History'
p1285
aS'Concordat_of_Worms'
p1286
asS'210559'
p1287
(lp1288
S'train'
p1289
aS'History'
p1290
aS'France'
p1291
asS'104133'
p1292
(lp1293
S'train'
p1294
aS'History'
p1295
aS'Crete'
p1296
asS'2517'
p1297
(lp1298
S'train'
p1299
aS'History'
p1300
aS'Julian_(emperor)'
p1301
asS'2513'
p1302
(lp1303
S'train'
p1304
aS'History'
p1305
aS'Gaius_Marius'
p1306
asS'2735'
p1307
(lp1308
S'train'
p1309
aS'History'
p1310
aS'Mark_Antony'
p1311
asS'2737'
p1312
(lp1313
S'train'
p1314
aS'History'
p1315
aS'Claudius'
p1316
asS'2733'
p1317
(lp1318
S'train'
p1319
aS'History'
p1320
aS'Darius_I'
p1321
asS'2643'
p1322
(lp1323
S'train'
p1324
aS'History'
p1325
aS'Wang_Mang'
p1326
asS'191155'
p1327
(lp1328
S'train'
p1329
aS'History'
p1330
aS'Albania'
p1331
asS'3535'
p1332
(lp1333
S'train'
p1334
aS'History'
p1335
aS'Battle_of_Agincourt'
p1336
asS'191153'
p1337
(lp1338
S'train'
p1339
aS'History'
p1340
aS'Rutherford_B._Hayes'
p1341
asS'3539'
p1342
(lp1343
S'train'
p1344
aS'History'
p1345
aS'Great_Northern_War'
p1346
asS'101853'
p1347
(lp1348
S'train'
p1349
aS'History'
p1350
aS'Puerto_Rico'
p1351
asS'209167'
p1352
(lp1353
S'train'
p1354
aS'History'
p1355
aS'Franco-Prussian_War'
p1356
asS'1813'
p1357
(lp1358
S'train'
p1359
aS'History'
p1360
aS'Battle_of_Shiloh'
p1361
asS'210339'
p1362
(lp1363
S'train'
p1364
aS'History'
p1365
aS'Voltaire'
p1366
asS'205203'
p1367
(lp1368
S'train'
p1369
aS'History:Europe'
p1370
aS'Justinian_I'
p1371
asS'192449'
p1372
(lp1373
S'train'
p1374
aS'History'
p1375
aS'Prague_Spring'
p1376
asS'190799'
p1377
(lp1378
S'train'
p1379
aS'History'
p1380
aS'John_Adams'
p1381
asS'102551'
p1382
(lp1383
S'train'
p1384
aS'History'
p1385
aS'Atahualpa'
p1386
asS'112685'
p1387
(lp1388
S'train'
p1389
aS'History'
p1390
aS'Teapot_Dome_scandal'
p1391
asS'112937'
p1392
(lp1393
S'train'
p1394
aS'History'
p1395
aS'Carthage'
p1396
asS'122839'
p1397
(lp1398
S'train'
p1399
aS'History'
p1400
aS'William_Pitt_the_Younger'
p1401
asS'102085'
p1402
(lp1403
S'train'
p1404
aS'History'
p1405
aS'Pilgrimage_of_Grace'
p1406
asS'3225'
p1407
(lp1408
S'train'
p1409
aS'History'
p1410
aS'First_Crusade'
p1411
asS'3221'
p1412
(lp1413
S'train'
p1414
aS'History'
p1415
aS'Hanseatic_League'
p1416
asS'202547'
p1417
(lp1418
S'train'
p1419
aS'History:World'
p1420
aS'Australia'
p1421
asS'193975'
p1422
(lp1423
S'train'
p1424
aS'History'
p1425
aS'Tokugawa_shogunate'
p1426
asS'113887'
p1427
(lp1428
S'train'
p1429
aS'History'
p1430
aS'Robert_Walpole'
p1431
asS'103075'
p1432
(lp1433
S'train'
p1434
aS'History'
p1435
aS'Getulio_Vargas'
p1436
asS'109517'
p1437
(lp1438
S'train'
p1439
aS'History'
p1440
aS'Bonus_Army'
p1441
asS'202611'
p1442
(lp1443
S'train'
p1444
aS'History:Europe'
p1445
aS'Spain'
p1446
asS'2841'
p1447
(lp1448
S'train'
p1449
aS'History'
p1450
aS'Jean-Philippe_Rameau'
p1451
asS'3321'
p1452
(lp1453
S'train'
p1454
aS'History'
p1455
aS'Napoleon'
p1456
asS'193099'
p1457
(lp1458
S'train'
p1459
aS'History'
p1460
aS'John_Foster_Dulles'
p1461
asS'112593'
p1462
(lp1463
S'train'
p1464
aS'History'
p1465
aS"King_Philip's_War"
p1466
asS'106705'
p1467
(lp1468
S'train'
p1469
aS'History'
p1470
aS'Sicilian_Expedition'
p1471
asS'1777'
p1472
(lp1473
S'train'
p1474
aS'History'
p1475
aS'P._T._Barnum'
p1476
asS'1771'
p1477
(lp1478
S'train'
p1479
aS'History'
p1480
aS'Wilmot_Proviso'
p1481
asS'121619'
p1482
(lp1483
S'train'
p1484
aS'History'
p1485
aS'Bavaria'
p1486
asS'107607'
p1487
(lp1488
S'train'
p1489
aS'History'
p1490
aS'Tokugawa_Ieyasu'
p1491
asS'123835'
p1492
(lp1493
S'train'
p1494
aS'History'
p1495
aS'Benjamin_Disraeli'
p1496
asS'112441'
p1497
(lp1498
S'train'
p1499
aS'History'
p1500
aS'Anti-Masonic_Party'
p1501
asS'211065'
p1502
(lp1503
S'train'
p1504
aS'History'
p1505
aS'Malaysia'
p1506
asS'112113'
p1507
(lp1508
S'train'
p1509
aS'History'
p1510
aS'Kwame_Nkrumah'
p1511
asS'115647'
p1512
(lp1513
S'train'
p1514
aS'History'
p1515
aS'Jameson_Raid'
p1516
asS'115461'
p1517
(lp1518
S'train'
p1519
aS'History'
p1520
aS'Sweden'
p1521
asS'108111'
p1522
(lp1523
S'train'
p1524
aS'History'
p1525
aS'Burma'
p1526
asS'193019'
p1527
(lp1528
S'train'
p1529
aS'History'
p1530
aS'William_James'
p1531
asS'193157'
p1532
(lp1533
S'train'
p1534
aS'History'
p1535
aS'Battle_of_Hastings'
p1536
asS'193159'
p1537
(lp1538
S'train'
p1539
aS'History'
p1540
aS'Maryland'
p1541
asS'123611'
p1542
(lp1543
S'train'
p1544
aS'History'
p1545
aS'Ireland'
p1546
asS'122235'
p1547
(lp1548
S'train'
p1549
aS'History'
p1550
aS'Boston'
p1551
asS'111811'
p1552
(lp1553
S'train'
p1554
aS'History'
p1555
aS'Nicolae_Ceausescu'
p1556
asS'122231'
p1557
(lp1558
S'train'
p1559
aS'History'
p1560
aS'Charles_Evans_Hughes'
p1561
asS'2995'
p1562
(lp1563
S'train'
p1564
aS'History'
p1565
aS'William_III_of_England'
p1566
asS'2997'
p1567
(lp1568
S'train'
p1569
aS'History'
p1570
aS"Bishops'_Wars"
p1571
asS'189837'
p1572
(lp1573
S'train'
p1574
aS'History'
p1575
aS'Richard_Nixon'
p1576
asS'111369'
p1577
(lp1578
S'train'
p1579
aS'History'
p1580
aS'Council_of_Trent'
p1581
asS'109641'
p1582
(lp1583
S'train'
p1584
aS'History'
p1585
aS'Treaty_of_Aix-la-Chapelle_(1748)'
p1586
asS'3031'
p1587
(lp1588
S'train'
p1589
aS'History'
p1590
aS'Peterloo_Massacre'
p1591
asS'109887'
p1592
(lp1593
S'train'
p1594
aS'History'
p1595
aS'Nero'
p1596
asS'192841'
p1597
(lp1598
S'train'
p1599
aS'History'
p1600
aS'Battle_of_Shiloh'
p1601
asS'201621'
p1602
(lp1603
S'train'
p1604
aS'History:American'
p1605
aS'Boston_Massacre'
p1606
asS'119029'
p1607
(lp1608
S'train'
p1609
aS'History'
p1610
aS'Henry_III_of_France'
p1611
asS'119023'
p1612
(lp1613
S'train'
p1614
aS'History'
p1615
aS'Schenck_v._United_States'
p1616
asS'106895'
p1617
(lp1618
S'train'
p1619
aS'History'
p1620
aS'Louis_XI_of_France'
p1621
asS'207711'
p1622
(lp1623
S'train'
p1624
aS'History'
p1625
aS'Spanish-American_War'
p1626
asS'117647'
p1627
(lp1628
S'train'
p1629
aS'History'
p1630
aS'Third_Crusade'
p1631
asS'3819'
p1632
(lp1633
S'train'
p1634
aS'History'
p1635
aS'Haiti'
p1636
asS'103917'
p1637
(lp1638
S'train'
p1639
aS'History'
p1640
aS'Battle_of_Marengo'
p1641
asS'110561'
p1642
(lp1643
S'train'
p1644
aS'History'
p1645
aS'Hanseatic_League'
p1646
asS'111767'
p1647
(lp1648
S'train'
p1649
aS'History'
p1650
aS'War_of_Devolution'
p1651
asS'193301'
p1652
(lp1653
S'train'
p1654
aS'History'
p1655
aS'Haymarket_affair'
p1656
asS'201713'
p1657
(lp1658
S'train'
p1659
aS'History:Europe'
p1660
aS'Charlemagne'
p1661
asS'193307'
p1662
(lp1663
S'train'
p1664
aS'History'
p1665
aS'Babur'
p1666
asS'193305'
p1667
(lp1668
S'train'
p1669
aS'History'
p1670
aS'Harriet_Beecher_Stowe'
p1671
asS'114513'
p1672
(lp1673
S'train'
p1674
aS'History'
p1675
aS'Dorr_Rebellion'
p1676
asS'4297'
p1677
(lp1678
S'train'
p1679
aS'History'
p1680
aS'Malaysia'
p1681
asS'103351'
p1682
(lp1683
S'train'
p1684
aS'History'
p1685
aS'Colombia'
p1686
asS'117421'
p1687
(lp1688
S'train'
p1689
aS'History'
p1690
aS'Umayyad_Caliphate'
p1691
asS'117427'
p1692
(lp1693
S'train'
p1694
aS'History'
p1695
aS'Teutonic_Knights'
p1696
asS'100805'
p1697
(lp1698
S'train'
p1699
aS'History'
p1700
aS'Basil_II'
p1701
asS'100801'
p1702
(lp1703
S'train'
p1704
aS'History'
p1705
aS'First_Battle_of_Bull_Run'
p1706
asS'107851'
p1707
(lp1708
S'train'
p1709
aS'History'
p1710
aS'Methodism'
p1711
asS'192147'
p1712
(lp1713
S'train'
p1714
aS'History'
p1715
aS'Battle_of_Lepanto'
p1716
asS'107787'
p1717
(lp1718
S'train'
p1719
aS'History'
p1720
aS'Yuan_Dynasty'
p1721
asS'110367'
p1722
(lp1723
S'train'
p1724
aS'History'
p1725
aS"St._Bartholomew's_Day_massacre"
p1726
asS'201403'
p1727
(lp1728
S'train'
p1729
aS'History:Europe'
p1730
aS'Austria'
p1731
asS'204917'
p1732
(lp1733
S'train'
p1734
aS'History:British'
p1735
aS'Battle_of_Hastings'
p1736
asS'193419'
p1737
(lp1738
S'train'
p1739
aS'History'
p1740
aS'Uganda'
p1741
asS'117575'
p1742
(lp1743
S'train'
p1744
aS'History'
p1745
aS'Harry_S._Truman'
p1746
asS'201409'
p1747
(lp1748
S'train'
p1749
aS'History:World'
p1750
aS'Cuba'
p1751
asS'107297'
p1752
(lp1753
S'train'
p1754
aS'History'
p1755
aS'Richard_II_(play)'
p1756
asS'191309'
p1757
(lp1758
S'train'
p1759
aS'History'
p1760
aS'Philip_II_of_Spain'
p1761
asS'119547'
p1762
(lp1763
S'train'
p1764
aS'History'
p1765
aS'July_Revolution'
p1766
asS'100931'
p1767
(lp1768
S'train'
p1769
aS'History'
p1770
aS'Mamluk'
p1771
asS'104037'
p1772
(lp1773
S'train'
p1774
aS'History'
p1775
aS'Vienna'
p1776
asS'119835'
p1777
(lp1778
S'train'
p1779
aS'History'
p1780
aS'Brian_Mulroney'
p1781
asS'2219'
p1782
(lp1783
S'train'
p1784
aS'History'
p1785
aS'Hawaii'
p1786
asS'204873'
p1787
(lp1788
S'train'
p1789
aS'History:World'
p1790
aS'Philippines'
p1791
asS'191239'
p1792
(lp1793
S'train'
p1794
aS'History'
p1795
aS'Justinian_I'
p1796
asS'121971'
p1797
(lp1798
S'train'
p1799
aS'History'
p1800
aS'Clayton_Antitrust_Act'
p1801
asS'3549'
p1802
(lp1803
S'train'
p1804
aS'History'
p1805
aS'Denmark'
p1806
asS'193527'
p1807
(lp1808
S'train'
p1809
aS'History'
p1810
aS'Battle_of_Manzikert'
p1811
asS'190549'
p1812
(lp1813
S'train'
p1814
aS'History'
p1815
aS'Attila'
p1816
asS'101991'
p1817
(lp1818
S'train'
p1819
aS'History'
p1820
aS'Leopold_II_of_Belgium'
p1821
asS'121577'
p1822
(lp1823
S'train'
p1824
aS'History'
p1825
aS'Hanseatic_League'
p1826
asS'104745'
p1827
(lp1828
S'train'
p1829
aS'History'
p1830
aS'Trent_Affair'
p1831
asS'105295'
p1832
(lp1833
S'train'
p1834
aS'History'
p1835
aS'Yuan_Dynasty'
p1836
asS'209083'
p1837
(lp1838
S'train'
p1839
aS'History'
p1840
aS'Uganda'
p1841
asS'195257'
p1842
(lp1843
S'train'
p1844
aS'History'
p1845
aS'Battle_of_Leipzig'
p1846
asS'107271'
p1847
(lp1848
S'train'
p1849
aS'History'
p1850
aS'Tokugawa_shogunate'
p1851
asS'122813'
p1852
(lp1853
S'train'
p1854
aS'History'
p1855
aS'Joseph_II,_Holy_Roman_Emperor'
p1856
asS'201387'
p1857
(lp1858
S'train'
p1859
aS'History:American'
p1860
aS'Battle_of_Hastings'
p1861
asS'4205'
p1862
(lp1863
S'train'
p1864
aS'History'
p1865
aS'Mobutu_Sese_Seko'
p1866
asS'2725'
p1867
(lp1868
S'train'
p1869
aS'History'
p1870
aS'Cleisthenes'
p1871
asS'200751'
p1872
(lp1873
S'train'
p1874
aS'History:World'
p1875
aS'Mozambique'
p1876
asS'113637'
p1877
(lp1878
S'train'
p1879
aS'History'
p1880
aS'Great_Society'
p1881
asS'198685'
p1882
(lp1883
S'train'
p1884
aS'History'
p1885
aS'Giuseppe_Mazzini'
p1886
asS'204453'
p1887
(lp1888
S'train'
p1889
aS'History:World'
p1890
aS'Cao_Cao'
p1891
asS'3781'
p1892
(lp1893
S'train'
p1894
aS'History'
p1895
aS'Akbar'
p1896
asS'1803'
p1897
(lp1898
S'train'
p1899
aS'History'
p1900
aS'Francis_Marion'
p1901
asS'3785'
p1902
(lp1903
S'train'
p1904
aS'History'
p1905
aS'Golden_Horde'
p1906
asS'204459'
p1907
(lp1908
S'train'
p1909
aS'History:British'
p1910
aS'Charles_I_of_England'
p1911
asS'209375'
p1912
(lp1913
S'train'
p1914
aS'History'
p1915
aS'Egypt'
p1916
asS'190787'
p1917
(lp1918
S'train'
p1919
aS'History'
p1920
aS'Battle_of_Gettysburg'
p1921
asS'102567'
p1922
(lp1923
S'train'
p1924
aS'History'
p1925
aS'Kublai_Khan'
p1926
asS'113989'
p1927
(lp1928
S'train'
p1929
aS'History'
p1930
aS"Shays'_Rebellion"
p1931
asS'104819'
p1932
(lp1933
S'train'
p1934
aS'History'
p1935
aS'Charlemagne'
p1936
asS'2631'
p1937
(lp1938
S'train'
p1939
aS'History'
p1940
aS'Julian_(emperor)'
p1941
asS'211101'
p1942
(lp1943
S'train'
p1944
aS'History'
p1945
aS'New_York_City'
p1946
asS'106073'
p1947
(lp1948
S'train'
p1949
aS'History'
p1950
aS'Teapot_Dome_scandal'
p1951
asS'102743'
p1952
(lp1953
S'train'
p1954
aS'History'
p1955
aS'Battle_of_Trenton'
p1956
asS'3257'
p1957
(lp1958
S'train'
p1959
aS'History'
p1960
aS'Battle_of_Leipzig'
p1961
asS'203829'
p1962
(lp1963
S'train'
p1964
aS'History:World'
p1965
aS'Nigeria'
p1966
asS'210453'
p1967
(lp1968
S'train'
p1969
aS'History'
p1970
aS'Silver'
p1971
asS'195071'
p1972
(lp1973
S'train'
p1974
aS'History'
p1975
aS'Arthur_Wellesley,_1st_Duke_of_Wellington'
p1976
asS'204293'
p1977
(lp1978
S'train'
p1979
aS'History:World'
p1980
aS'Japan'
p1981
asS'210987'
p1982
(lp1983
S'train'
p1984
aS'History'
p1985
aS'Cherokee'
p1986
asS'193091'
p1987
(lp1988
S'train'
p1989
aS'History'
p1990
aS'Mark_Twain'
p1991
asS'2851'
p1992
(lp1993
S'train'
p1994
aS'History'
p1995
aS'Charles_V,_Holy_Roman_Emperor'
p1996
asS'202661'
p1997
(lp1998
S'train'
p1999
aS'History:Europe'
p2000
aS'Finland'
p2001
asS'1493'
p2002
(lp2003
S'train'
p2004
aS'History'
p2005
aS'Jay_Treaty'
p2006
asS'3335'
p2007
(lp2008
S'train'
p2009
aS'History'
p2010
aS'Teutonic_Knights'
p2011
asS'104929'
p2012
(lp2013
S'train'
p2014
aS'History'
p2015
aS'Night_of_the_Long_Knives'
p2016
asS'112857'
p2017
(lp2018
S'train'
p2019
aS'History'
p2020
aS'Mobutu_Sese_Seko'
p2021
asS'106143'
p2022
(lp2023
S'train'
p2024
aS'History'
p2025
aS"St._Bartholomew's_Day_massacre"
p2026
asS'207243'
p2027
(lp2028
S'train'
p2029
aS'History'
p2030
aS'Berlin'
p2031
asS'107617'
p2032
(lp2033
S'train'
p2034
aS'History'
p2035
aS'Josip_Broz_Tito'
p2036
asS'195105'
p2037
(lp2038
S'train'
p2039
aS'History'
p2040
aS'Caroline_affair'
p2041
asS'111153'
p2042
(lp2043
S'train'
p2044
aS'History'
p2045
aS'Shang_Dynasty'
p2046
asS'3655'
p2047
(lp2048
S'train'
p2049
aS'History'
p2050
aS'Joseph_II,_Holy_Roman_Emperor'
p2051
asS'123663'
p2052
(lp2053
S'train'
p2054
aS'History'
p2055
aS'Lajos_Kossuth'
p2056
asS'119307'
p2057
(lp2058
S'train'
p2059
aS'History'
p2060
aS'Gupta_Empire'
p2061
asS'122225'
p2062
(lp2063
S'train'
p2064
aS'History'
p2065
aS'Samuel_J._Tilden'
p2066
asS'111801'
p2067
(lp2068
S'train'
p2069
aS'History'
p2070
aS'Battle_of_the_Boyne'
p2071
asS'111805'
p2072
(lp2073
S'train'
p2074
aS'History'
p2075
aS'Decembrist_revolt'
p2076
asS'3025'
p2077
(lp2078
S'train'
p2079
aS'History'
p2080
aS'Ivan_the_Terrible'
p2081
asS'208603'
p2082
(lp2083
S'train'
p2084
aS'History'
p2085
aS'Finland'
p2086
asS'207121'
p2087
(lp2088
S'train'
p2089
aS'History'
p2090
aS'John_Adams'
p2091
asS'111029'
p2092
(lp2093
S'train'
p2094
aS'History'
p2095
aS'Paraguayan_War'
p2096
asS'118789'
p2097
(lp2098
S'train'
p2099
aS'History'
p2100
aS'Ambrose_Burnside'
p2101
asS'118781'
p2102
(lp2103
S'train'
p2104
aS'History'
p2105
aS'Henry_VIII_of_England'
p2106
asS'4359'
p2107
(lp2108
S'train'
p2109
aS'History'
p2110
aS'Uruguay'
p2111
asS'118547'
p2112
(lp2113
S'train'
p2114
aS'History'
p2115
aS'Italy'
p2116
asS'197251'
p2117
(lp2118
S'train'
p2119
aS'History'
p2120
aS'Henry_VIII_of_England'
p2121
asS'103763'
p2122
(lp2123
S'train'
p2124
aS'History'
p2125
aS'Toyotomi_Hideyoshi'
p2126
asS'196355'
p2127
(lp2128
S'train'
p2129
aS'History'
p2130
aS'Otto_von_Bismarck'
p2131
asS'208919'
p2132
(lp2133
S'train'
p2134
aS'History'
p2135
aS'Nigeria'
p2136
asS'111975'
p2137
(lp2138
S'train'
p2139
aS'History'
p2140
aS'William_Jennings_Bryan'
p2141
asS'208911'
p2142
(lp2143
S'train'
p2144
aS'History'
p2145
aS'Abraham_Lincoln'
p2146
asS'111795'
p2147
(lp2148
S'train'
p2149
aS'History'
p2150
aS'Greece'
p2151
asS'117637'
p2152
(lp2153
S'train'
p2154
aS'History'
p2155
aS'Treaty_of_Tordesillas'
p2156
asS'189627'
p2157
(lp2158
S'train'
p2159
aS'History'
p2160
aS'Nicaragua'
p2161
asS'103903'
p2162
(lp2163
S'train'
p2164
aS'History'
p2165
aS'Chaco_War'
p2166
asS'117639'
p2167
(lp2168
S'train'
p2169
aS'History'
p2170
aS'Claudius'
p2171
asS'3801'
p2172
(lp2173
S'train'
p2174
aS'History'
p2175
aS'Ecuador'
p2176
asS'201763'
p2177
(lp2178
S'train'
p2179
aS'History:American'
p2180
aS'Cherokee'
p2181
asS'193315'
p2182
(lp2183
S'train'
p2184
aS'History'
p2185
aS'Sam_Houston'
p2186
asS'193317'
p2187
(lp2188
S'train'
p2189
aS'History'
p2190
aS'Scopes_Trial'
p2191
asS'194853'
p2192
(lp2193
S'train'
p2194
aS'History'
p2195
aS'Ethiopia'
p2196
asS'207341'
p2197
(lp2198
S'train'
p2199
aS'History'
p2200
aS'Bear'
p2201
asS'212597'
p2202
(lp2203
S'train'
p2204
aS'History:World'
p2205
aS'Pakistan'
p2206
asS'189247'
p2207
(lp2208
S'train'
p2209
aS'History'
p2210
aS'Han_Dynasty'
p2211
asS'120365'
p2212
(lp2213
S'train'
p2214
aS'History'
p2215
aS'Albania'
p2216
asS'110359'
p2217
(lp2218
S'train'
p2219
aS'History'
p2220
aS'Tang_Dynasty'
p2221
asS'100837'
p2222
(lp2223
S'train'
p2224
aS'History'
p2225
aS'Council_of_Chalcedon'
p2226
asS'209419'
p2227
(lp2228
S'train'
p2229
aS'History'
p2230
aS'Brazil'
p2231
asS'118165'
p2232
(lp2233
S'train'
p2234
aS'History'
p2235
aS'Suez_Crisis'
p2236
asS'118765'
p2237
(lp2238
S'train'
p2239
aS'History'
p2240
aS'Cuba'
p2241
asS'195671'
p2242
(lp2243
S'train'
p2244
aS'History'
p2245
aS'Domitian'
p2246
asS'193407'
p2247
(lp2248
S'train'
p2249
aS'History'
p2250
aS'Jackson_Pollock'
p2251
asS'193401'
p2252
(lp2253
S'train'
p2254
aS'History'
p2255
aS'Philip_II_of_Spain'
p2256
asS'204755'
p2257
(lp2258
S'train'
p2259
aS'History:World'
p2260
aS'Turkey'
p2261
asS'107919'
p2262
(lp2263
S'train'
p2264
aS'History'
p2265
aS'Whiskey_Rebellion'
p2266
asS'110969'
p2267
(lp2268
S'train'
p2269
aS'History'
p2270
aS'Spanish_Civil_War'
p2271
asS'100903'
p2272
(lp2273
S'train'
p2274
aS'History'
p2275
aS'William_H._Seward'
p2276
asS'193261'
p2277
(lp2278
S'train'
p2279
aS'History'
p2280
aS'Cyrus_the_Great'
p2281
asS'123539'
p2282
(lp2283
S'train'
p2284
aS'History'
p2285
aS'Charles_Stewart_Parnell'
p2286
asS'208179'
p2287
(lp2288
S'train'
p2289
aS'History'
p2290
aS'Benedict_Arnold'
p2291
asS'189449'
p2292
(lp2293
S'train'
p2294
aS'History'
p2295
aS'Cuba'
p2296
asS'104023'
p2297
(lp2298
S'train'
p2299
aS'History'
p2300
aS'Benjamin_Harrison'
p2301
asS'2229'
p2302
(lp2303
S'train'
p2304
aS'History'
p2305
aS'Battle_of_Chancellorsville'
p2306
asS'2225'
p2307
(lp2308
S'train'
p2309
aS'History'
p2310
aS'Horace_Greeley'
p2311
asS'191229'
p2312
(lp2313
S'train'
p2314
aS'History'
p2315
aS'Henry_VIII_of_England'
p2316
asS'201507'
p2317
(lp2318
S'train'
p2319
aS'History:Europe'
p2320
aS'Spain'
p2321
asS'120217'
p2322
(lp2323
S'train'
p2324
aS'History'
p2325
aS'Franklin_Pierce'
p2326
asS'208285'
p2327
(lp2328
S'train'
p2329
aS'History'
p2330
aS'Battle_of_Stalingrad'
p2331
asS'210683'
p2332
(lp2333
S'train'
p2334
aS'History'
p2335
aS'Napoleon'
p2336
asS'190575'
p2337
(lp2338
S'train'
p2339
aS'History'
p2340
aS'Finland'
p2341
asS'104757'
p2342
(lp2343
S'train'
p2344
aS'History'
p2345
aS'Ramesses_II'
p2346
asS'195241'
p2347
(lp2348
S'train'
p2349
aS'History'
p2350
aS'Caligula'
p2351
asS'102979'
p2352
(lp2353
S'train'
p2354
aS'History'
p2355
aS'Oliver_Cromwell'
p2356
asS'102977'
p2357
(lp2358
S'train'
p2359
aS'History'
p2360
aS'Taiping_Rebellion'
p2361
asS'192597'
p2362
(lp2363
S'train'
p2364
aS'History'
p2365
aS'Poland'
p2366
asS'105197'
p2367
(lp2368
S'train'
p2369
aS'History'
p2370
aS'Rutherford_B._Hayes'
p2371
asS'104117'
p2372
(lp2373
S'train'
p2374
aS'History'
p2375
aS'Bogomilism'
p2376
asS'198699'
p2377
(lp2378
S'train'
p2379
aS'History'
p2380
aS'Benjamin_Franklin'
p2381
asS'2713'
p2382
(lp2383
S'train'
p2384
aS'History'
p2385
aS'Justinian_I'
p2386
asS'2717'
p2387
(lp2388
S'train'
p2389
aS'History'
p2390
aS'Thebes,_Greece'
p2391
asS'107445'
p2392
(lp2393
S'train'
p2394
aS'History'
p2395
aS'Verdun'
p2396
asS'198693'
p2397
(lp2398
S'train'
p2399
aS'History'
p2400
aS'Iran-Contra_affair'
p2401
asS'191179'
p2402
(lp2403
S'train'
p2404
aS'History'
p2405
aS'Arizona'
p2406
asS'121101'
p2407
(lp2408
S'train'
p2409
aS'History'
p2410
aS'Battle_of_Bouvines'
p2411
asS'197881'
p2412
(lp2413
S'train'
p2414
aS'History'
p2415
aS'Charlemagne'
p2416
asS'191175'
p2417
(lp2418
S'train'
p2419
aS'History'
p2420
aS'France'
p2421
asS'191173'
p2422
(lp2423
S'train'
p2424
aS'History'
p2425
aS'James_Monroe'
p2426
asS'192467'
p2427
(lp2428
S'train'
p2429
aS'History'
p2430
aS'Ming_Dynasty'
p2431
asS'3799'
p2432
(lp2433
S'train'
p2434
aS'History'
p2435
aS'Alfredo_Stroessner'
p2436
asS'102571'
p2437
(lp2438
S'train'
p2439
aS'History'
p2440
aS'Nigeria'
p2441
asS'209187'
p2442
(lp2443
S'train'
p2444
aS'History'
p2445
aS'Ming_Dynasty'
p2446
asS'116165'
p2447
(lp2448
S'train'
p2449
aS'History'
p2450
aS'Morocco'
p2451
asS'2407'
p2452
(lp2453
S'train'
p2454
aS'History'
p2455
aS'Vandals'
p2456
asS'122925'
p2457
(lp2458
S'train'
p2459
aS'History'
p2460
aS'Louis_XI_of_France'
p2461
asS'123525'
p2462
(lp2463
S'train'
p2464
aS'History'
p2465
aS'Diocletian'
p2466
asS'118993'
p2467
(lp2468
S'train'
p2469
aS'History'
p2470
aS'Ashanti_Empire'
p2471
asS'112665'
p2472
(lp2473
S'train'
p2474
aS'History'
p2475
aS'Afghanistan'
p2476
asS'102353'
p2477
(lp2478
S'train'
p2479
aS'History'
p2480
aS'Jacquerie'
p2481
asS'202453'
p2482
(lp2483
S'train'
p2484
aS'History:Europe'
p2485
aS'Rome'
p2486
asS'105409'
p2487
(lp2488
S'train'
p2489
aS'History'
p2490
aS'Francis_Marion'
p2491
asS'1957'
p2492
(lp2493
S'train'
p2494
aS'History'
p2495
aS'Henry_L._Stimson'
p2496
asS'1951'
p2497
(lp2498
S'train'
p2499
aS'History'
p2500
aS'Chester_A._Arthur'
p2501
asS'197527'
p2502
(lp2503
S'train'
p2504
aS'History'
p2505
aS'Joseph_Stalin'
p2506
asS'122033'
p2507
(lp2508
S'train'
p2509
aS'History'
p2510
aS'Battle_of_Kings_Mountain'
p2511
asS'122035'
p2512
(lp2513
S'train'
p2514
aS'History'
p2515
aS'Tokugawa_shogunate'
p2516
asS'3249'
p2517
(lp2518
S'train'
p2519
aS'History'
p2520
aS'Paris_Commune'
p2521
asS'211463'
p2522
(lp2523
S'train'
p2524
aS'History'
p2525
aS'Greece'
p2526
asS'202523'
p2527
(lp2528
S'train'
p2529
aS'History:World'
p2530
aS'Kenya'
p2531
asS'195061'
p2532
(lp2533
S'train'
p2534
aS'History'
p2535
aS'Poland'
p2536
asS'203853'
p2537
(lp2538
S'train'
p2539
aS'History:World'
p2540
aS'Ming_Dynasty'
p2541
asS'193083'
p2542
(lp2543
S'train'
p2544
aS'History'
p2545
aS'Woodrow_Wilson'
p2546
asS'211483'
p2547
(lp2548
S'train'
p2549
aS'History'
p2550
aS'Texas'
p2551
asS'119223'
p2552
(lp2553
S'train'
p2554
aS'History'
p2555
aS'Mozambique'
p2556
asS'1481'
p2557
(lp2558
S'train'
p2559
aS'History'
p2560
aS'Henry_Clay'
p2561
asS'4313'
p2562
(lp2563
S'train'
p2564
aS'History'
p2565
aS'Akbar'
p2566
asS'122101'
p2567
(lp2568
S'train'
p2569
aS'History'
p2570
aS'Chester_A._Arthur'
p2571
asS'3307'
p2572
(lp2573
S'train'
p2574
aS'History'
p2575
aS'Decembrist_revolt'
p2576
asS'3305'
p2577
(lp2578
S'train'
p2579
aS'History'
p2580
aS'Battle_of_the_Bulge'
p2581
asS'113849'
p2582
(lp2583
S'train'
p2584
aS'History'
p2585
aS'Salvador_Allende'
p2586
asS'2411'
p2587
(lp2588
S'train'
p2589
aS'History'
p2590
aS'Archimedes'
p2591
asS'1719'
p2592
(lp2593
S'train'
p2594
aS'History'
p2595
aS'Francis_Marion'
p2596
asS'115669'
p2597
(lp2598
S'train'
p2599
aS'History'
p2600
aS'Finland'
p2601
asS'113995'
p2602
(lp2603
S'train'
p2604
aS'History'
p2605
aS'Hittites'
p2606
asS'112469'
p2607
(lp2608
S'train'
p2609
aS'History'
p2610
aS'Paraguayan_War'
p2611
asS'202293'
p2612
(lp2613
S'train'
p2614
aS'History:World'
p2615
aS'South_Korea'
p2616
asS'112465'
p2617
(lp2618
S'train'
p2619
aS'History'
p2620
aS'Athens'
p2621
asS'112715'
p2622
(lp2623
S'train'
p2624
aS'History'
p2625
aS'Kansas-Nebraska_Act'
p2626
asS'2793'
p2627
(lp2628
S'train'
p2629
aS'History'
p2630
aS'War_of_Devolution'
p2631
asS'108463'
p2632
(lp2633
S'train'
p2634
aS'History'
p2635
aS'Methodism'
p2636
asS'115593'
p2637
(lp2638
S'train'
p2639
aS'History'
p2640
aS'Robert_Walpole'
p2641
asS'212101'
p2642
(lp2643
S'train'
p2644
aS'History'
p2645
aS'Vikings'
p2646
asS'212107'
p2647
(lp2648
S'train'
p2649
aS'History'
p2650
aS'Cain'
p2651
asS'122219'
p2652
(lp2653
S'train'
p2654
aS'History'
p2655
aS'Battle_of_Manzikert'
p2656
asS'207641'
p2657
(lp2658
S'train'
p2659
aS'History'
p2660
aS'Australia'
p2661
asS'3017'
p2662
(lp2663
S'train'
p2664
aS'History'
p2665
aS'War_of_Devolution'
p2666
asS'202187'
p2667
(lp2668
S'train'
p2669
aS'History:American'
p2670
aS'Spanish-American_War'
p2671
asS'104951'
p2672
(lp2673
S'train'
p2674
aS'History'
p2675
aS'Kansas'
p2676
asS'2067'
p2677
(lp2678
S'train'
p2679
aS'History'
p2680
aS'Thaddeus_Stevens'
p2681
asS'212723'
p2682
(lp2683
S'train'
p2684
aS'History:Classical'
p2685
aS'Syracuse,_Sicily'
p2686
asS'190969'
p2687
(lp2688
S'train'
p2689
aS'History'
p2690
aS'War_of_1812'
p2691
asS'4345'
p2692
(lp2693
S'train'
p2694
aS'History'
p2695
aS'Khmer_Empire'
p2696
asS'118573'
p2697
(lp2698
S'train'
p2699
aS'History'
p2700
aS'Treaty_of_Versailles'
p2701
asS'103023'
p2702
(lp2703
S'train'
p2704
aS'History'
p2705
aS'William_the_Conqueror'
p2706
asS'103753'
p2707
(lp2708
S'train'
p2709
aS'History'
p2710
aS'Alcibiades'
p2711
asS'109791'
p2712
(lp2713
S'train'
p2714
aS'History'
p2715
aS'Emilio_Aguinaldo'
p2716
asS'109795'
p2717
(lp2718
S'train'
p2719
aS'History'
p2720
aS'Paraguayan_War'
p2721
asS'115285'
p2722
(lp2723
S'train'
p2724
aS'History'
p2725
aS'Congress_of_Berlin'
p2726
asS'115287'
p2727
(lp2728
S'train'
p2729
aS'History'
p2730
aS'Lucius_Tarquinius_Superbus'
p2731
asS'110509'
p2732
(lp2733
S'train'
p2734
aS'History'
p2735
aS'Battle_of_Marathon'
p2736
asS'108139'
p2737
(lp2738
S'train'
p2739
aS'History'
p2740
aS'Giuseppe_Garibaldi'
p2741
asS'118681'
p2742
(lp2743
S'train'
p2744
aS'History'
p2745
aS'William_III_of_England'
p2746
asS'117625'
p2747
(lp2748
S'train'
p2749
aS'History'
p2750
aS'John_A._Macdonald'
p2751
asS'2255'
p2752
(lp2753
S'train'
p2754
aS'History'
p2755
aS'Henry_L._Stimson'
p2756
asS'110699'
p2757
(lp2758
S'train'
p2759
aS'History'
p2760
aS'Angola'
p2761
asS'197335'
p2762
(lp2763
S'train'
p2764
aS'History'
p2765
aS'Genghis_Khan'
p2766
asS'193329'
p2767
(lp2768
S'train'
p2769
aS'History'
p2770
aS'Panama'
p2771
asS'201779'
p2772
(lp2773
S'train'
p2774
aS'History:Europe'
p2775
aS'Berlin'
p2776
asS'193325'
p2777
(lp2778
S'train'
p2779
aS'History'
p2780
aS'Sri_Lanka'
p2781
asS'193327'
p2782
(lp2783
S'train'
p2784
aS'History'
p2785
aS'Zoot_Suit_Riots'
p2786
asS'193323'
p2787
(lp2788
S'train'
p2789
aS'History'
p2790
aS'Rwandan_Genocide'
p2791
asS'109227'
p2792
(lp2793
S'train'
p2794
aS'History'
p2795
aS'Great_Famine_(Ireland)'
p2796
asS'119171'
p2797
(lp2798
S'train'
p2799
aS'History'
p2800
aS'Getulio_Vargas'
p2801
asS'109225'
p2802
(lp2803
S'train'
p2804
aS'History'
p2805
aS'Wilmot_Proviso'
p2806
asS'208835'
p2807
(lp2808
S'train'
p2809
aS'History'
p2810
aS'Cuba'
p2811
asS'103623'
p2812
(lp2813
S'train'
p2814
aS'History'
p2815
aS'Themistocles'
p2816
asS'208839'
p2817
(lp2818
S'train'
p2819
aS'History'
p2820
aS'War_of_1812'
p2821
asS'3903'
p2822
(lp2823
S'train'
p2824
aS'History'
p2825
aS'Akbar'
p2826
asS'3909'
p2827
(lp2828
S'train'
p2829
aS'History'
p2830
aS'Jawaharlal_Nehru'
p2831
asS'4167'
p2832
(lp2833
S'train'
p2834
aS'History'
p2835
aS'White_Lotus_Rebellion'
p2836
asS'109137'
p2837
(lp2838
S'train'
p2839
aS'History'
p2840
aS'Alfredo_Stroessner'
p2841
asS'4165'
p2842
(lp2843
S'train'
p2844
aS'History'
p2845
aS'Kubla_Khan'
p2846
asS'204937'
p2847
(lp2848
S'train'
p2849
aS'History:World'
p2850
aS'Aztec_Empire'
p2851
asS'1579'
p2852
(lp2853
S'train'
p2854
aS'History'
p2855
aS'Creek_War'
p2856
asS'107421'
p2857
(lp2858
S'train'
p2859
aS'History'
p2860
aS'Treaty_of_Ghent'
p2861
asS'201195'
p2862
(lp2863
S'train'
p2864
aS'History:Europe'
p2865
aS'Gibraltar'
p2866
asS'100915'
p2867
(lp2868
S'train'
p2869
aS'History'
p2870
aS'Lyndon_B._Johnson'
p2871
asS'116579'
p2872
(lp2873
S'train'
p2874
aS'History'
p2875
aS'William_Pitt_the_Younger'
p2876
asS'192697'
p2877
(lp2878
S'train'
p2879
aS'History'
p2880
aS'Philippines'
p2881
asS'114713'
p2882
(lp2883
S'train'
p2884
aS'History'
p2885
aS'Sweden'
p2886
asS'2235'
p2887
(lp2888
S'train'
p2889
aS'History'
p2890
aS'Lewis_Cass'
p2891
asS'101063'
p2892
(lp2893
S'train'
p2894
aS'History'
p2895
aS'Battle_of_Plassey'
p2896
asS'100827'
p2897
(lp2898
S'train'
p2899
aS'History'
p2900
aS'Olmec'
p2901
asS'100823'
p2902
(lp2903
S'train'
p2904
aS'History'
p2905
aS'Gibraltar'
p2906
asS'100829'
p2907
(lp2908
S'train'
p2909
aS'History'
p2910
aS'Kublai_Khan'
p2911
asS'120203'
p2912
(lp2913
S'train'
p2914
aS'History'
p2915
aS'Nero'
p2916
asS'3499'
p2917
(lp2918
S'train'
p2919
aS'History'
p2920
aS'Louis_IX_of_France'
p2921
asS'117371'
p2922
(lp2923
S'train'
p2924
aS'History'
p2925
aS'Jawaharlal_Nehru'
p2926
asS'192583'
p2927
(lp2928
S'train'
p2929
aS'History'
p2930
aS'John_Quincy_Adams'
p2931
asS'106271'
p2932
(lp2933
S'train'
p2934
aS'History'
p2935
aS'Henry_Clay'
p2936
asS'121355'
p2937
(lp2938
S'train'
p2939
aS'History'
p2940
aS'Charles_Stewart_Parnell'
p2941
asS'106277'
p2942
(lp2943
S'train'
p2944
aS'History'
p2945
aS'Buenos_Aires'
p2946
asS'193613'
p2947
(lp2948
S'train'
p2949
aS'History'
p2950
aS'Albania'
p2951
asS'190363'
p2952
(lp2953
S'train'
p2954
aS'History'
p2955
aS'Benjamin_Franklin'
p2956
asS'2709'
p2957
(lp2958
S'train'
p2959
aS'History'
p2960
aS'Cyrus_the_Great'
p2961
asS'196803'
p2962
(lp2963
S'train'
p2964
aS'History'
p2965
aS'Gamal_Abdel_Nasser'
p2966
asS'107453'
p2967
(lp2968
S'train'
p2969
aS'History'
p2970
aS'Uruguay'
p2971
asS'122735'
p2972
(lp2973
S'train'
p2974
aS'History'
p2975
aS'North_Carolina'
p2976
asS'116391'
p2977
(lp2978
S'train'
p2979
aS'History'
p2980
aS'Illinois'
p2981
asS'118215'
p2982
(lp2983
S'train'
p2984
aS'History'
p2985
aS'Lucius_Tarquinius_Superbus'
p2986
asS'4405'
p2987
(lp2988
S'train'
p2989
aS'History'
p2990
aS'Canada'
p2991
asS'102509'
p2992
(lp2993
S'train'
p2994
aS'History'
p2995
aS'Battle_of_Agincourt'
p2996
asS'4401'
p2997
(lp2998
S'train'
p2999
aS'History'
p3000
aS'Porfirio_Diaz'
p3001
asS'4403'
p3002
(lp3003
S'train'
p3004
aS'History'
p3005
aS'Genghis_Khan'
p3006
asS'190567'
p3007
(lp3008
S'train'
p3009
aS'History'
p3010
aS'Poland'
p3011
asS'2413'
p3012
(lp3013
S'train'
p3014
aS'History'
p3015
aS'Hyksos'
p3016
asS'104767'
p3017
(lp3018
S'train'
p3019
aS'History'
p3020
aS'Pequot_War'
p3021
asS'2417'
p3022
(lp3023
S'train'
p3024
aS'History'
p3025
aS'Pelops'
p3026
asS'203111'
p3027
(lp3028
S'train'
p3029
aS'History:Classic'
p3030
aS'Theoderic_the_Great'
p3031
asS'105411'
p3032
(lp3033
S'train'
p3034
aS'History'
p3035
aS'Second_Boer_War'
p3036
asS'122845'
p3037
(lp3038
S'train'
p3039
aS'History'
p3040
aS'Alfredo_Stroessner'
p3041
asS'118435'
p3042
(lp3043
S'train'
p3044
aS'History'
p3045
aS'Paraguay'
p3046
asS'3273'
p3047
(lp3048
S'train'
p3049
aS'History'
p3050
aS'Zollverein'
p3051
asS'190217'
p3052
(lp3053
S'train'
p3054
aS'History'
p3055
aS'Greece'
p3056
asS'200641'
p3057
(lp3058
S'train'
p3059
aS'History:American'
p3060
aS'Philadelphia'
p3061
asS'197531'
p3062
(lp3063
S'train'
p3064
aS'History'
p3065
aS'Calvin_Coolidge'
p3066
asS'3279'
p3067
(lp3068
S'train'
p3069
aS'History'
p3070
aS'AEthelred_the_Unready'
p3071
asS'210471'
p3072
(lp3073
S'train'
p3074
aS'History'
p3075
aS'Philadelphia'
p3076
asS'210473'
p3077
(lp3078
S'train'
p3079
aS'History'
p3080
aS'North_Carolina'
p3081
asS'195295'
p3082
(lp3083
S'train'
p3084
aS'History'
p3085
aS'Diocletian'
p3086
asS'2937'
p3087
(lp3088
S'train'
p3089
aS'History'
p3090
aS'Battle_of_Marengo'
p3091
asS'203845'
p3092
(lp3093
S'train'
p3094
aS'History:American'
p3095
aS'Los_Angeles'
p3096
asS'210279'
p3097
(lp3098
S'train'
p3099
aS'History'
p3100
aS'Sri_Lanka'
p3101
asS'108079'
p3102
(lp3103
S'train'
p3104
aS'History'
p3105
aS'Caroline_affair'
p3106
asS'112011'
p3107
(lp3108
S'train'
p3109
aS'History'
p3110
aS'Maurya_Empire'
p3111
asS'207653'
p3112
(lp3113
S'train'
p3114
aS'History'
p3115
aS'Cicero'
p3116
asS'107631'
p3117
(lp3118
S'train'
p3119
aS'History'
p3120
aS'Carthage'
p3121
asS'3313'
p3122
(lp3123
S'train'
p3124
aS'History'
p3125
aS'Portugal'
p3126
asS'104903'
p3127
(lp3128
S'train'
p3129
aS'History'
p3130
aS'Nicolas_Sarkozy'
p3131
asS'3315'
p3132
(lp3133
S'train'
p3134
aS'History'
p3135
aS'Battle_of_Bannockburn'
p3136
asS'108673'
p3137
(lp3138
S'train'
p3139
aS'History'
p3140
aS'Ivan_the_Terrible'
p3141
asS'104401'
p3142
(lp3143
S'train'
p3144
aS'History'
p3145
aS'Septimius_Severus'
p3146
asS'189995'
p3147
(lp3148
S'train'
p3149
aS'History'
p3150
aS'Mali_Empire'
p3151
asS'195123'
p3152
(lp3153
S'train'
p3154
aS'History'
p3155
aS'Getulio_Vargas'
p3156
asS'123867'
p3157
(lp3158
S'train'
p3159
aS'History'
p3160
aS'Henry_Clay'
p3161
asS'123645'
p3162
(lp3163
S'train'
p3164
aS'History'
p3165
aS'Ghana'
p3166
asS'192905'
p3167
(lp3168
S'train'
p3169
aS'History'
p3170
aS'Richard_Nixon'
p3171
asS'115431'
p3172
(lp3173
S'train'
p3174
aS'History'
p3175
aS'Syracuse,_Sicily'
p3176
asS'115437'
p3177
(lp3178
S'train'
p3179
aS'History'
p3180
aS"Peasants'_Revolt"
p3181
asS'106463'
p3182
(lp3183
S'train'
p3184
aS'History'
p3185
aS'Deng_Xiaoping'
p3186
asS'106467'
p3187
(lp3188
S'train'
p3189
aS'History'
p3190
aS'National_Labor_Relations_Act'
p3191
asS'108413'
p3192
(lp3193
S'train'
p3194
aS'History'
p3195
aS'Charles_II_of_England'
p3196
asS'193183'
p3197
(lp3198
S'train'
p3199
aS'History'
p3200
aS'Paraguayan_War'
p3201
asS'3009'
p3202
(lp3203
S'train'
p3204
aS'History'
p3205
aS'Henry_IV_of_France'
p3206
asS'108789'
p3207
(lp3208
S'train'
p3209
aS'History'
p3210
aS'Umayyad_Caliphate'
p3211
asS'208621'
p3212
(lp3213
S'train'
p3214
aS'History'
p3215
aS'Malaysia'
p3216
asS'122205'
p3217
(lp3218
S'train'
p3219
aS'History'
p3220
aS'AEthelred_the_Unready'
p3221
asS'110887'
p3222
(lp3223
S'train'
p3224
aS'History'
p3225
aS'Jallianwala_Bagh_massacre'
p3226
asS'115725'
p3227
(lp3228
S'train'
p3229
aS'History'
p3230
aS'Francisco_I._Madero'
p3231
asS'115723'
p3232
(lp3233
S'train'
p3234
aS'History'
p3235
aS'Harold_Godwinson'
p3236
asS'110759'
p3237
(lp3238
S'train'
p3239
aS'History'
p3240
aS'Pequot_War'
p3241
asS'204681'
p3242
(lp3243
S'train'
p3244
aS'History:Europe'
p3245
aS'Charlemagne'
p3246
asS'194987'
p3247
(lp3248
S'train'
p3249
aS'History'
p3250
aS'Brian_Mulroney'
p3251
asS'207215'
p3252
(lp3253
S'train'
p3254
aS'History'
p3255
aS'Iran-Contra_affair'
p3256
asS'196575'
p3257
(lp3258
S'train'
p3259
aS'History'
p3260
aS'Deng_Xiaoping'
p3261
asS'193051'
p3262
(lp3263
S'train'
p3264
aS'History'
p3265
aS'Canada'
p3266
asS'106511'
p3267
(lp3268
S'train'
p3269
aS'History'
p3270
aS'Herbert_Hoover'
p3271
asS'109781'
p3272
(lp3273
S'train'
p3274
aS'History'
p3275
aS'Ming_Dynasty'
p3276
asS'109785'
p3277
(lp3278
S'train'
p3279
aS'History'
p3280
aS'Battle_of_Trenton'
p3281
asS'107733'
p3282
(lp3283
S'train'
p3284
aS'History'
p3285
aS'Edward_the_Confessor'
p3286
asS'109789'
p3287
(lp3288
S'train'
p3289
aS'History'
p3290
aS'Jawaharlal_Nehru'
p3291
asS'3869'
p3292
(lp3293
S'train'
p3294
aS'History'
p3295
aS'Genghis_Khan'
p3296
asS'4083'
p3297
(lp3298
S'train'
p3299
aS'History'
p3300
aS"Bernardo_O'Higgins"
p3301
asS'4087'
p3302
(lp3303
S'train'
p3304
aS'History'
p3305
aS'Timur'
p3306
asS'3863'
p3307
(lp3308
S'train'
p3309
aS'History'
p3310
aS'Patrice_Lumumba'
p3311
asS'1723'
p3312
(lp3313
S'train'
p3314
aS'History'
p3315
aS'William_H._Seward'
p3316
asS'111759'
p3317
(lp3318
S'train'
p3319
aS'History'
p3320
aS'Austria'
p3321
asS'193335'
p3322
(lp3323
S'train'
p3324
aS'History'
p3325
aS'Charles_de_Gaulle'
p3326
asS'107333'
p3327
(lp3328
S'train'
p3329
aS'History'
p3330
aS'Nikita_Khrushchev'
p3331
asS'3917'
p3332
(lp3333
S'train'
p3334
aS'History'
p3335
aS'White_Lotus_Rebellion'
p3336
asS'3915'
p3337
(lp3338
S'train'
p3339
aS'History'
p3340
aS'Ming_Dynasty'
p3341
asS'189511'
p3342
(lp3343
S'train'
p3344
aS'History'
p3345
aS'William_Pitt_the_Younger'
p3346
asS'103819'
p3347
(lp3348
S'train'
p3349
aS'History'
p3350
aS'Muhammad_Ali_Jinnah'
p3351
asS'120345'
p3352
(lp3353
S'train'
p3354
aS'History'
p3355
aS'Sherman_Antitrust_Act'
p3356
asS'200903'
p3357
(lp3358
S'train'
p3359
aS'History:Europe'
p3360
aS'Florence'
p3361
asS'118747'
p3362
(lp3363
S'train'
p3364
aS'History'
p3365
aS'Huey_Long'
p3366
asS'103251'
p3367
(lp3368
S'train'
p3369
aS'History'
p3370
aS'Battle_of_Marathon'
p3371
asS'197299'
p3372
(lp3373
S'train'
p3374
aS'History'
p3375
aS"Thirty_Years'_War"
p3376
asS'201691'
p3377
(lp3378
S'train'
p3379
aS'History:British'
p3380
aS'Battle_of_Hastings'
p3381
asS'197965'
p3382
(lp3383
S'train'
p3384
aS'History'
p3385
aS'Umayyad_Caliphate'
p3386
asS'208119'
p3387
(lp3388
S'train'
p3389
aS'History'
p3390
aS'Han_Dynasty'
p3391
asS'205197'
p3392
(lp3393
S'train'
p3394
aS'History:British'
p3395
aS'Wars_of_the_Roses'
p3396
asS'209505'
p3397
(lp3398
S'train'
p3399
aS'History'
p3400
aS'Vietnam'
p3401
asS'189195'
p3402
(lp3403
S'train'
p3404
aS'History'
p3405
aS"Peasants'_Revolt"
p3406
asS'114709'
p3407
(lp3408
S'train'
p3409
aS'History'
p3410
aS'El_Salvador'
p3411
asS'121909'
p3412
(lp3413
S'train'
p3414
aS'History'
p3415
aS'Great_Northern_War'
p3416
asS'189199'
p3417
(lp3418
S'train'
p3419
aS'History'
p3420
aS'Mao_Zedong'
p3421
asS'107803'
p3422
(lp3423
S'train'
p3424
aS'History'
p3425
aS'Battle_of_Bannockburn'
p3426
asS'190811'
p3427
(lp3428
S'train'
p3429
aS'History'
p3430
aS'Sweden'
p3431
asS'105085'
p3432
(lp3433
S'train'
p3434
aS'History'
p3435
aS'Charles_II_of_England'
p3436
asS'3647'
p3437
(lp3438
S'train'
p3439
aS'History'
p3440
aS'Portugal'
p3441
asS'116705'
p3442
(lp3443
S'train'
p3444
aS'History'
p3445
aS'William_III_of_England'
p3446
asS'2557'
p3447
(lp3448
S'train'
p3449
aS'History'
p3450
aS'Sargon_of_Akkad'
p3451
asS'210513'
p3452
(lp3453
S'train'
p3454
aS'History'
p3455
aS'Gibraltar'
p3456
asS'2559'
p3457
(lp3458
S'train'
p3459
aS'History'
p3460
aS'Constantine_the_Great'
p3461
asS'210511'
p3462
(lp3463
S'train'
p3464
aS'History'
p3465
aS'Crimean_War'
p3466
asS'3007'
p3467
(lp3468
S'train'
p3469
aS'History'
p3470
aS'Otto_I,_Holy_Roman_Emperor'
p3471
asS'120525'
p3472
(lp3473
S'train'
p3474
aS'History'
p3475
aS'Rome'
p3476
asS'2395'
p3477
(lp3478
S'train'
p3479
aS'History'
p3480
aS'Themistocles'
p3481
asS'121837'
p3482
(lp3483
S'train'
p3484
aS'History'
p3485
aS'Italy'
p3486
asS'203695'
p3487
(lp3488
S'train'
p3489
aS'History:World'
p3490
aS'Vietnam'
p3491
asS'2771'
p3492
(lp3493
S'train'
p3494
aS'History'
p3495
aS'Otto_I,_Holy_Roman_Emperor'
p3496
asS'196819'
p3497
(lp3498
S'train'
p3499
aS'History'
p3500
aS'Andrew_Jackson'
p3501
asS'197465'
p3502
(lp3503
S'train'
p3504
aS'History'
p3505
aS'Charlemagne'
p3506
asS'190353'
p3507
(lp3508
S'train'
p3509
aS'History'
p3510
aS'Henry_VIII_of_England'
p3511
asS'191119'
p3512
(lp3513
S'train'
p3514
aS'History'
p3515
aS'Battles_of_Saratoga'
p3516
asS'2803'
p3517
(lp3518
S'train'
p3519
aS'History'
p3520
aS'Gibraltar'
p3521
asS'4137'
p3522
(lp3523
S'train'
p3524
aS'History'
p3525
aS'Patrice_Lumumba'
p3526
asS'116639'
p3527
(lp3528
S'train'
p3529
aS'History'
p3530
aS'Lewis_Cass'
p3531
asS'194189'
p3532
(lp3533
S'train'
p3534
aS'History'
p3535
aS'Battles_of_Saratoga'
p3536
asS'1859'
p3537
(lp3538
S'train'
p3539
aS'History'
p3540
aS'Barry_Goldwater'
p3541
asS'4417'
p3542
(lp3543
S'train'
p3544
aS'History'
p3545
aS'Lester_B._Pearson'
p3546
asS'112499'
p3547
(lp3548
S'train'
p3549
aS'History'
p3550
aS'Henry_I_of_England'
p3551
asS'1853'
p3552
(lp3553
S'train'
p3554
aS'History'
p3555
aS'James_G._Blaine'
p3556
asS'192641'
p3557
(lp3558
S'train'
p3559
aS'History'
p3560
aS'Maryland'
p3561
asS'104777'
p3562
(lp3563
S'train'
p3564
aS'History'
p3565
aS'Idi_Amin'
p3566
asS'119593'
p3567
(lp3568
S'train'
p3569
aS'History'
p3570
aS'James_Fenimore_Cooper'
p3571
asS'192647'
p3572
(lp3573
S'train'
p3574
aS'History'
p3575
aS'Sweden'
p3576
asS'209321'
p3577
(lp3578
S'train'
p3579
aS'History'
p3580
aS'Indonesia'
p3581
asS'195597'
p3582
(lp3583
S'train'
p3584
aS'History'
p3585
aS'Virginia'
p3586
asS'122053'
p3587
(lp3588
S'train'
p3589
aS'History'
p3590
aS'Girolamo_Savonarola'
p3591
asS'2607'
p3592
(lp3593
S'train'
p3594
aS'History'
p3595
aS'Axum'
p3596
asS'105429'
p3597
(lp3598
S'train'
p3599
aS'History'
p3600
aS'Henry_VIII_of_England'
p3601
asS'1589'
p3602
(lp3603
S'train'
p3604
aS'History'
p3605
aS'Battle_of_Antietam'
p3606
asS'190223'
p3607
(lp3608
S'train'
p3609
aS'History'
p3610
aS'Lyndon_B._Johnson'
p3611
asS'190737'
p3612
(lp3613
S'train'
p3614
aS'History'
p3615
aS'Denmark'
p3616
asS'208243'
p3617
(lp3618
S'train'
p3619
aS'History'
p3620
aS'Thomas_Jefferson'
p3621
asS'198529'
p3622
(lp3623
S'train'
p3624
aS'History'
p3625
aS'Edict_of_Nantes'
p3626
asS'207101'
p3627
(lp3628
S'train'
p3629
aS'History'
p3630
aS'Joseph_II,_Holy_Roman_Emperor'
p3631
asS'198259'
p3632
(lp3633
S'train'
p3634
aS'History'
p3635
aS'Teutonic_Knights'
p3636
asS'102021'
p3637
(lp3638
S'train'
p3639
aS'History'
p3640
aS'Fronde'
p3641
asS'102029'
p3642
(lp3643
S'train'
p3644
aS'History'
p3645
aS'White_Lotus_Rebellion'
p3646
asS'197615'
p3647
(lp3648
S'train'
p3649
aS'History'
p3650
aS'Brazil'
p3651
asS'122473'
p3652
(lp3653
S'train'
p3654
aS'History'
p3655
aS'Decembrist_revolt'
p3656
asS'122475'
p3657
(lp3658
S'train'
p3659
aS'History'
p3660
aS'Oda_Nobunaga'
p3661
asS'189981'
p3662
(lp3663
S'train'
p3664
aS'History'
p3665
aS'Seneca_Falls_Convention'
p3666
asS'194527'
p3667
(lp3668
S'train'
p3669
aS'History'
p3670
aS'Henry_Clay'
p3671
asS'1733'
p3672
(lp3673
S'train'
p3674
aS'History'
p3675
aS'Charles_Evans_Hughes'
p3676
asS'1735'
p3677
(lp3678
S'train'
p3679
aS'History'
p3680
aS'Whiskey_Rebellion'
p3681
asS'201909'
p3682
(lp3683
S'train'
p3684
aS'History:World'
p3685
aS'New_Zealand'
p3686
asS'193197'
p3687
(lp3688
S'train'
p3689
aS'History'
p3690
aS'Jerusalem'
p3691
asS'193195'
p3692
(lp3693
S'train'
p3694
aS'History'
p3695
aS'Salvador_Allende'
p3696
asS'193191'
p3697
(lp3698
S'train'
p3699
aS'History'
p3700
aS'Han_Dynasty'
p3701
asS'115423'
p3702
(lp3703
S'train'
p3704
aS'History'
p3705
aS'John_A._Macdonald'
p3706
asS'193199'
p3707
(lp3708
S'train'
p3709
aS'History'
p3710
aS'Illinois'
p3711
asS'3071'
p3712
(lp3713
S'train'
p3714
aS'History'
p3715
aS'Congress_of_Vienna'
p3716
asS'2959'
p3717
(lp3718
S'train'
p3719
aS'History'
p3720
aS'Battle_of_Bosworth_Field'
p3721
asS'202259'
p3722
(lp3723
S'train'
p3724
aS'History:Europe'
p3725
aS'Berlin'
p3726
asS'3077'
p3727
(lp3728
S'train'
p3729
aS'History'
p3730
aS'Kalmar_Union'
p3731
asS'1599'
p3732
(lp3733
S'train'
p3734
aS'History'
p3735
aS'Roger_B._Taney'
p3736
asS'106451'
p3737
(lp3738
S'train'
p3739
aS'History'
p3740
aS'Leonid_Brezhnev'
p3741
asS'197505'
p3742
(lp3743
S'train'
p3744
aS'History'
p3745
aS"Peasants'_Revolt"
p3746
asS'197763'
p3747
(lp3748
S'train'
p3749
aS'History'
p3750
aS'Chateau_Louis_XIV'
p3751
asS'212125'
p3752
(lp3753
S'train'
p3754
aS'History'
p3755
aS'Calvin_Coolidge'
p3756
asS'192769'
p3757
(lp3758
S'train'
p3759
aS'History'
p3760
aS'Kublai_Khan'
p3761
asS'112025'
p3762
(lp3763
S'train'
p3764
aS'History'
p3765
aS'Ozymandias'
p3766
asS'115735'
p3767
(lp3768
S'train'
p3769
aS'History'
p3770
aS'Edict_of_Nantes'
p3771
asS'195863'
p3772
(lp3773
S'train'
p3774
aS'History'
p3775
aS'Vandals'
p3776
asS'118511'
p3777
(lp3778
S'train'
p3779
aS'History'
p3780
aS'War_of_the_Spanish_Succession'
p3781
asS'115559'
p3782
(lp3783
S'train'
p3784
aS'History'
p3785
aS'Battle_of_Chancellorsville'
p3786
asS'109687'
p3787
(lp3788
S'train'
p3789
aS'History'
p3790
aS'Toyotomi_Hideyoshi'
p3791
asS'196367'
p3792
(lp3793
S'train'
p3794
aS'History'
p3795
aS'Italy'
p3796
asS'109731'
p3797
(lp3798
S'train'
p3799
aS'History'
p3800
aS'Jameson_Raid'
p3801
asS'207201'
p3802
(lp3803
S'train'
p3804
aS'History'
p3805
aS'Kansas'
p3806
asS'122305'
p3807
(lp3808
S'train'
p3809
aS'History'
p3810
aS'Football_War'
p3811
asS'193041'
p3812
(lp3813
S'train'
p3814
aS'History'
p3815
aS'Bulgaria'
p3816
asS'122301'
p3817
(lp3818
S'train'
p3819
aS'History'
p3820
aS'Babur'
p3821
asS'111299'
p3822
(lp3823
S'train'
p3824
aS'History'
p3825
aS'Safavid_dynasty'
p3826
asS'3103'
p3827
(lp3828
S'train'
p3829
aS'History'
p3830
aS'Council_of_Constance'
p3831
asS'106853'
p3832
(lp3833
S'train'
p3834
aS'History'
p3835
aS'Battle_of_Bosworth_Field'
p3836
asS'4091'
p3837
(lp3838
S'train'
p3839
aS'History'
p3840
aS'Taiping_Rebellion'
p3841
asS'103795'
p3842
(lp3843
S'train'
p3844
aS'History'
p3845
aS'Chinese_Exclusion_Act'
p3846
asS'4095'
p3847
(lp3848
S'train'
p3849
aS'History'
p3850
aS'Dahomey'
p3851
asS'103797'
p3852
(lp3853
S'train'
p3854
aS'History'
p3855
aS'Whig_Party_(United_States)'
p3856
asS'117605'
p3857
(lp3858
S'train'
p3859
aS'History'
p3860
aS'Cao_Cao'
p3861
asS'100683'
p3862
(lp3863
S'train'
p3864
aS'History'
p3865
aS'Ambrose_Burnside'
p3866
asS'111721'
p3867
(lp3868
S'train'
p3869
aS'History'
p3870
aS'Charles_Martel'
p3871
asS'201757'
p3872
(lp3873
S'train'
p3874
aS'History:Europe'
p3875
aS'John_Calvin'
p3876
asS'209379'
p3877
(lp3878
S'train'
p3879
aS'History'
p3880
aS'Canada'
p3881
asS'3921'
p3882
(lp3883
S'train'
p3884
aS'History'
p3885
aS'Akbar'
p3886
asS'3925'
p3887
(lp3888
S'train'
p3889
aS'History'
p3890
aS'Songhai_Empire'
p3891
asS'110411'
p3892
(lp3893
S'train'
p3894
aS'History'
p3895
aS'Benito_Juarez'
p3896
asS'193295'
p3897
(lp3898
S'train'
p3899
aS'History'
p3900
aS'Titian'
p3901
asS'109113'
p3902
(lp3903
S'train'
p3904
aS'History'
p3905
aS'Horace_Greeley'
p3906
asS'193299'
p3907
(lp3908
S'train'
p3909
aS'History'
p3910
aS'Henry_Clay'
p3911
asS'4143'
p3912
(lp3913
S'train'
p3914
aS'History'
p3915
aS'Canada'
p3916
asS'197289'
p3917
(lp3918
S'train'
p3919
aS'History'
p3920
aS'Justinian_I'
p3921
asS'197285'
p3922
(lp3923
S'train'
p3924
aS'History'
p3925
aS'Treaty_of_Versailles'
p3926
asS'198055'
p3927
(lp3928
S'train'
p3929
aS'History'
p3930
aS'Cyrus_the_Great'
p3931
asS'113983'
p3932
(lp3933
S'train'
p3934
aS'History'
p3935
aS'Thebes,_Greece'
p3936
asS'208105'
p3937
(lp3938
S'train'
p3939
aS'History'
p3940
aS'Mali_Empire'
p3941
asS'207741'
p3942
(lp3943
S'train'
p3944
aS'History'
p3945
aS'Poland'
p3946
asS'192073'
p3947
(lp3948
S'train'
p3949
aS'History'
p3950
aS'Muhammad_Ali_Jinnah'
p3951
asS'189479'
p3952
(lp3953
S'train'
p3954
aS'History'
p3955
aS'Night_of_the_Long_Knives'
p3956
asS'189477'
p3957
(lp3958
S'train'
p3959
aS'History'
p3960
aS'Iran'
p3961
asS'116551'
p3962
(lp3963
S'train'
p3964
aS'History'
p3965
aS'State_of_Franklin'
p3966
asS'116555'
p3967
(lp3968
S'train'
p3969
aS'History'
p3970
aS'Louis_Riel'
p3971
asS'201531'
p3972
(lp3973
S'train'
p3974
aS'History:American'
p3975
aS'Thomas_Jefferson'
p3976
asS'201537'
p3977
(lp3978
S'train'
p3979
aS'History:World'
p3980
aS'Ming_Dynasty'
p3981
asS'100849'
p3982
(lp3983
S'train'
p3984
aS'History'
p3985
aS'Coral_Sea'
p3986
asS'205057'
p3987
(lp3988
S'train'
p3989
aS'History:Classic'
p3990
aS'Sparta'
p3991
asS'105091'
p3992
(lp3993
S'train'
p3994
aS'History'
p3995
aS'Domitian'
p3996
asS'3679'
p3997
(lp3998
S'train'
p3999
aS'History'
p4000
aS'War_of_the_Polish_Succession'
p4001
asS'110859'
p4002
(lp4003
S'train'
p4004
aS'History'
p4005
aS'Kamakura_shogunate'
p4006
asS'3677'
p4007
(lp4008
S'train'
p4009
aS'History'
p4010
aS'Henry_VII_of_England'
p4011
asS'111919'
p4012
(lp4013
S'train'
p4014
aS'History'
p4015
aS'Battle_of_Austerlitz'
p4016
asS'203919'
p4017
(lp4018
S'train'
p4019
aS'History:World'
p4020
aS'Morocco'
p4021
asS'203911'
p4022
(lp4023
S'train'
p4024
aS'History:American'
p4025
aS'James_G._Blaine'
p4026
asS'117153'
p4027
(lp4028
S'train'
p4029
aS'History'
p4030
aS'Second_Boer_War'
p4031
asS'191347'
p4032
(lp4033
S'train'
p4034
aS'History'
p4035
aS'Israel'
p4036
asS'105161'
p4037
(lp4038
S'train'
p4039
aS'History'
p4040
aS'Finland'
p4041
asS'191127'
p4042
(lp4043
S'train'
p4044
aS'History'
p4045
aS'Vietnam_War'
p4046
asS'190435'
p4047
(lp4048
S'train'
p4049
aS'History'
p4050
aS'Apartheid'
p4051
asS'2765'
p4052
(lp4053
S'train'
p4054
aS'History'
p4055
aS'Battle_of_Marengo'
p4056
asS'204495'
p4057
(lp4058
S'train'
p4059
aS'History:American'
p4060
aS'Texas'
p4061
asS'3553'
p4062
(lp4063
S'train'
p4064
aS'History'
p4065
aS'Georgia_(country)'
p4066
asS'106325'
p4067
(lp4068
S'train'
p4069
aS'History'
p4070
aS'Kansas-Nebraska_Act'
p4071
asS'121241'
p4072
(lp4073
S'train'
p4074
aS'History'
p4075
aS'Guatemala'
p4076
asS'198733'
p4077
(lp4078
S'train'
p4079
aS'History'
p4080
aS'Muhammad_Ali_Jinnah'
p4081
asS'198737'
p4082
(lp4083
S'train'
p4084
aS'History'
p4085
aS'Benedict_Arnold'
p4086
asS'4423'
p4087
(lp4088
S'train'
p4089
aS'History'
p4090
aS'Wang_Mang'
p4091
asS'4427'
p4092
(lp4093
S'train'
p4094
aS'History'
p4095
aS'Haiti'
p4096
asS'192493'
p4097
(lp4098
S'train'
p4099
aS'History'
p4100
aS'Kiev'
p4101
asS'4425'
p4102
(lp4103
S'train'
p4104
aS'History'
p4105
aS'Deng_Xiaoping'
p4106
asS'196953'
p4107
(lp4108
S'train'
p4109
aS'History'
p4110
aS'Second_Boer_War'
p4111
asS'209333'
p4112
(lp4113
S'train'
p4114
aS'History'
p4115
aS'France'
p4116
asS'111077'
p4117
(lp4118
S'train'
p4119
aS'History'
p4120
aS'Alexander_II_of_Russia'
p4121
asS'196959'
p4122
(lp4123
S'train'
p4124
aS'History'
p4125
aS'William_Jennings_Bryan'
p4126
asS'203465'
p4127
(lp4128
S'train'
p4129
aS'History:Norse'
p4130
aS'Esperanto'
p4131
asS'101931'
p4132
(lp4133
S'train'
p4134
aS'History'
p4135
aS'Clayton_Antitrust_Act'
p4136
asS'190721'
p4137
(lp4138
S'train'
p4139
aS'History'
p4140
aS'Woodrow_Wilson'
p4141
asS'3297'
p4142
(lp4143
S'train'
p4144
aS'History'
p4145
aS'Louis_IX_of_France'
p4146
asS'3293'
p4147
(lp4148
S'train'
p4149
aS'History'
p4150
aS'Henry_I_of_England'
p4151
asS'211657'
p4152
(lp4153
S'train'
p4154
aS'History'
p4155
aS'Austria'
p4156
asS'3457'
p4157
(lp4158
S'train'
p4159
aS'History'
p4160
aS'War_of_the_Polish_Succession'
p4161
asS'211383'
p4162
(lp4163
S'train'
p4164
aS'History'
p4165
aS'Boston'
p4166
asS'104961'
p4167
(lp4168
S'train'
p4169
aS'History'
p4170
aS'Francois_Duvalier'
p4171
asS'198069'
p4172
(lp4173
S'train'
p4174
aS'History'
p4175
aS'War_of_the_Spanish_Succession'
p4176
asS'190657'
p4177
(lp4178
S'train'
p4179
aS'History'
p4180
aS'Harry_S._Truman'
p4181
asS'113819'
p4182
(lp4183
S'train'
p4184
aS'History'
p4185
aS'Atahualpa'
p4186
asS'117081'
p4187
(lp4188
S'train'
p4189
aS'History'
p4190
aS'Robert_E._Lee'
p4191
asS'122465'
p4192
(lp4193
S'train'
p4194
aS'History'
p4195
aS'Chester_A._Arthur'
p4196
asS'121669'
p4197
(lp4198
S'train'
p4199
aS'History'
p4200
aS'Ethiopia'
p4201
asS'210983'
p4202
(lp4203
S'train'
p4204
aS'History'
p4205
aS'Iceland'
p4206
asS'205225'
p4207
(lp4208
S'train'
p4209
aS'History:World'
p4210
aS'Third_Crusade'
p4211
asS'211035'
p4212
(lp4213
S'train'
p4214
aS'History'
p4215
aS'Burma'
p4216
asS'107491'
p4217
(lp4218
S'train'
p4219
aS'History'
p4220
aS"Peasants'_Revolt"
p4221
asS'102657'
p4222
(lp4223
S'train'
p4224
aS'History'
p4225
aS'Teutonic_Knights'
p4226
asS'211813'
p4227
(lp4228
S'train'
p4229
aS'History'
p4230
aS'Switzerland'
p4231
asS'122867'
p4232
(lp4233
S'train'
p4234
aS'History'
p4235
aS'Battle_of_Adrianople'
p4236
asS'115387'
p4237
(lp4238
S'train'
p4239
aS'History'
p4240
aS'Lyndon_B._Johnson'
p4241
asS'119349'
p4242
(lp4243
S'train'
p4244
aS'History'
p4245
aS'Seattle'
p4246
asS'112729'
p4247
(lp4248
S'train'
p4249
aS'History'
p4250
aS'Ancient_Corinth'
p4251
asS'109607'
p4252
(lp4253
S'train'
p4254
aS'History'
p4255
aS'George_Meade'
p4256
asS'108051'
p4257
(lp4258
S'train'
p4259
aS'History'
p4260
aS'Portugal'
p4261
asS'2945'
p4262
(lp4263
S'train'
p4264
aS'History'
p4265
aS'War_of_the_Polish_Succession'
p4266
asS'123315'
p4267
(lp4268
S'train'
p4269
aS'History'
p4270
aS'War_of_the_Pacific'
p4271
asS'119863'
p4272
(lp4273
S'train'
p4274
aS'History'
p4275
aS'Louis_Riel'
p4276
asS'123791'
p4277
(lp4278
S'train'
p4279
aS'History'
p4280
aS'Alexander_Hamilton'
p4281
asS'112037'
p4282
(lp4283
S'train'
p4284
aS'History'
p4285
aS'Henry_L._Stimson'
p4286
asS'1693'
p4287
(lp4288
S'train'
p4289
aS'History'
p4290
aS'Benjamin_Harrison'
p4291
asS'119237'
p4292
(lp4293
S'train'
p4294
aS'History'
p4295
aS'Puerto_Rico'
p4296
asS'4319'
p4297
(lp4298
S'train'
p4299
aS'History'
p4300
aS'Mexico'
p4301
asS'195853'
p4302
(lp4303
S'train'
p4304
aS'History'
p4305
aS'Chicago'
p4306
asS'108503'
p4307
(lp4308
S'train'
p4309
aS'History'
p4310
aS'Han_Dynasty'
p4311
asS'106847'
p4312
(lp4313
S'train'
p4314
aS'History'
p4315
aS'Julius_Nyerere'
p4316
asS'2375'
p4317
(lp4318
S'train'
p4319
aS'History'
p4320
aS'Lochner_v._New_York'
p4321
asS'196395'
p4322
(lp4323
S'train'
p4324
aS'History'
p4325
aS'Andrew_Jackson'
p4326
asS'192817'
p4327
(lp4328
S'train'
p4329
aS'History'
p4330
aS'Compromise_of_1850'
p4331
asS'212627'
p4332
(lp4333
S'train'
p4334
aS'History:European'
p4335
aS'Spanish_Civil_War'
p4336
asS'101023'
p4337
(lp4338
S'train'
p4339
aS'History'
p4340
aS'Aaron_Burr'
p4341
asS'106843'
p4342
(lp4343
S'train'
p4344
aS'History'
p4345
aS'Timur'
p4346
asS'107259'
p4347
(lp4348
S'train'
p4349
aS'History'
p4350
aS'Patrice_Lumumba'
p4351
asS'193077'
p4352
(lp4353
S'train'
p4354
aS'History'
p4355
aS'Fourth_Crusade'
p4356
asS'3117'
p4357
(lp4358
S'train'
p4359
aS'History'
p4360
aS'Pope_Julius_II'
p4361
asS'119293'
p4362
(lp4363
S'train'
p4364
aS'History'
p4365
aS'Nero'
p4366
asS'122319'
p4367
(lp4368
S'train'
p4369
aS'History'
p4370
aS'Ottoman_Empire'
p4371
asS'208791'
p4372
(lp4373
S'train'
p4374
aS'History'
p4375
aS'Battle_of_Stalingrad'
p4376
asS'208793'
p4377
(lp4378
S'train'
p4379
aS'History'
p4380
aS'Thebes,_Greece'
p4381
asS'1477'
p4382
(lp4383
S'train'
p4384
aS'History'
p4385
aS'Samuel_J._Tilden'
p4386
asS'206965'
p4387
(lp4388
S'train'
p4389
aS'History'
p4390
aS'World_War_I'
p4391
asS'197189'
p4392
(lp4393
S'train'
p4394
aS'History'
p4395
aS'Battle_of_Hastings'
p4396
asS'111739'
p4397
(lp4398
S'train'
p4399
aS'History'
p4400
aS'Sicilian_Expedition'
p4401
asS'109743'
p4402
(lp4403
S'train'
p4404
aS'History'
p4405
aS'Suleiman_the_Magnificent'
p4406
asS'111731'
p4407
(lp4408
S'train'
p4409
aS'History'
p4410
aS'Giuseppe_Mazzini'
p4411
asS'109749'
p4412
(lp4413
S'train'
p4414
aS'History'
p4415
aS'Julian_(emperor)'
p4416
asS'208671'
p4417
(lp4418
S'train'
p4419
aS'History'
p4420
aS'Tang_Dynasty'
p4421
asS'123135'
p4422
(lp4423
S'train'
p4424
aS'History'
p4425
aS'Texas'
p4426
asS'109697'
p4427
(lp4428
S'train'
p4429
aS'History'
p4430
aS'Hugo_Chavez'
p4431
asS'2455'
p4432
(lp4433
S'train'
p4434
aS'History'
p4435
aS'Hyksos'
p4436
asS'110731'
p4437
(lp4438
S'train'
p4439
aS'History'
p4440
aS'James_G._Blaine'
p4441
asS'103495'
p4442
(lp4443
S'train'
p4444
aS'History'
p4445
aS'George_Meade'
p4446
asS'110391'
p4447
(lp4448
S'train'
p4449
aS'History'
p4450
aS'Vietnam'
p4451
asS'110393'
p4452
(lp4453
S'train'
p4454
aS'History'
p4455
aS'Gamal_Abdel_Nasser'
p4456
asS'110465'
p4457
(lp4458
S'train'
p4459
aS'History'
p4460
aS'Chandragupta_Maurya'
p4461
asS'207607'
p4462
(lp4463
S'train'
p4464
aS'History'
p4465
aS'Iran-Contra_affair'
p4466
asS'100785'
p4467
(lp4468
S'train'
p4469
aS'History'
p4470
aS'Maryland'
p4471
asS'118721'
p4472
(lp4473
S'train'
p4474
aS'History'
p4475
aS'Umayyad_Caliphate'
p4476
asS'4131'
p4477
(lp4478
S'train'
p4479
aS'History'
p4480
aS'Jallianwala_Bagh_massacre'
p4481
asS'193289'
p4482
(lp4483
S'train'
p4484
aS'History'
p4485
aS'James_Fenimore_Cooper'
p4486
asS'118725'
p4487
(lp4488
S'train'
p4489
aS'History'
p4490
aS'Leonid_Brezhnev'
p4491
asS'109101'
p4492
(lp4493
S'train'
p4494
aS'History'
p4495
aS'Tecumseh'
p4496
asS'206911'
p4497
(lp4498
S'train'
p4499
aS'History'
p4500
aS'Cao_Cao'
p4501
asS'194945'
p4502
(lp4503
S'train'
p4504
aS'History'
p4505
aS'Idi_Amin'
p4506
asS'3845'
p4507
(lp4508
S'train'
p4509
aS'History'
p4510
aS'Coral_Sea'
p4511
asS'103275'
p4512
(lp4513
S'train'
p4514
aS'History'
p4515
aS'Battle_of_the_Boyne'
p4516
asS'116547'
p4517
(lp4518
S'train'
p4519
aS'History'
p4520
aS'Estonia'
p4521
asS'209523'
p4522
(lp4523
S'train'
p4524
aS'History'
p4525
aS'United_States'
p4526
asS'4043'
p4527
(lp4528
S'train'
p4529
aS'History'
p4530
aS'Axum'
p4531
asS'118659'
p4532
(lp4533
S'train'
p4534
aS'History'
p4535
aS'Porfirio_Diaz'
p4536
asS'120323'
p4537
(lp4538
S'train'
p4539
aS'History'
p4540
aS'Song_Dynasty'
p4541
asS'190863'
p4542
(lp4543
S'train'
p4544
aS'History'
p4545
aS'Rutherford_B._Hayes'
p4546
asS'201039'
p4547
(lp4548
S'train'
p4549
aS'History:World'
p4550
aS'New_Zealand'
p4551
asS'190869'
p4552
(lp4553
S'train'
p4554
aS'History'
p4555
aS'Sparta'
p4556
asS'2289'
p4557
(lp4558
S'train'
p4559
aS'History'
p4560
aS'Whiskey_Rebellion'
p4561
asS'3667'
p4562
(lp4563
S'train'
p4564
aS'History'
p4565
aS'Chateau_Louis_XIV'
p4566
asS'120259'
p4567
(lp4568
S'train'
p4569
aS'History'
p4570
aS'Marbury_v._Madison'
p4571
asS'2283'
p4572
(lp4573
S'train'
p4574
aS'History'
p4575
aS'Winfield_Scott'
p4576
asS'3669'
p4577
(lp4578
S'train'
p4579
aS'History'
p4580
aS'Copperhead_(politics)'
p4581
asS'2285'
p4582
(lp4583
S'train'
p4584
aS'History'
p4585
aS'Jay_Treaty'
p4586
asS'189311'
p4587
(lp4588
S'train'
p4589
aS'History'
p4590
aS'Gamal_Abdel_Nasser'
p4591
asS'104153'
p4592
(lp4593
S'train'
p4594
aS'History'
p4595
aS'Lollardy'
p4596
asS'114613'
p4597
(lp4598
S'train'
p4599
aS'History'
p4600
aS'Vienna'
p4601
asS'209233'
p4602
(lp4603
S'train'
p4604
aS'History'
p4605
aS'Ottoman_Empire'
p4606
asS'209237'
p4607
(lp4608
S'train'
p4609
aS'History'
p4610
aS'Justinian_I'
p4611
asS'105151'
p4612
(lp4613
S'train'
p4614
aS'History'
p4615
aS'Teutonic_Knights'
p4616
asS'2377'
p4617
(lp4618
S'train'
p4619
aS'History'
p4620
aS'The_Vicar_of_Wakefield'
p4621
asS'2373'
p4622
(lp4623
S'train'
p4624
aS'History'
p4625
aS'Scopes_Trial'
p4626
asS'2591'
p4627
(lp4628
S'train'
p4629
aS'History'
p4630
aS'Daniel'
p4631
asS'190405'
p4632
(lp4633
S'train'
p4634
aS'History'
p4635
aS'Battle_of_Stalingrad'
p4636
asS'208091'
p4637
(lp4638
S'train'
p4639
aS'History'
p4640
aS'Argentina'
p4641
asS'4433'
p4642
(lp4643
S'train'
p4644
aS'History'
p4645
aS'El_Salvador'
p4646
asS'201819'
p4647
(lp4648
S'train'
p4649
aS'History:Europe'
p4650
aS'Netherlands'
p4651
asS'117237'
p4652
(lp4653
S'train'
p4654
aS'History'
p4655
aS'Cuba'
p4656
asS'113061'
p4657
(lp4658
S'train'
p4659
aS'History'
p4660
aS'Lithuania'
p4661
asS'196943'
p4662
(lp4663
S'train'
p4664
aS'History'
p4665
aS'Henry_Clay'
p4666
asS'2119'
p4667
(lp4668
S'train'
p4669
aS'History'
p4670
aS'Haymarket_affair'
p4671
asS'193717'
p4672
(lp4673
S'train'
p4674
aS'History'
p4675
aS'War_of_the_Spanish_Succession'
p4676
asS'104125'
p4677
(lp4678
S'train'
p4679
aS'History'
p4680
aS'Prague'
p4681
asS'193713'
p4682
(lp4683
S'train'
p4684
aS'History'
p4685
aS'Jefferson_Davis'
p4686
asS'190537'
p4687
(lp4688
S'train'
p4689
aS'History'
p4690
aS"Thirty_Years'_War"
p4691
asS'192627'
p4692
(lp4693
S'train'
p4694
aS'History'
p4695
aS'Haiti'
p4696
asS'190533'
p4697
(lp4698
S'train'
p4699
aS'History'
p4700
aS'Charlemagne'
p4701
asS'190241'
p4702
(lp4703
S'train'
p4704
aS'History'
p4705
aS'Wars_of_the_Roses'
p4706
asS'193849'
p4707
(lp4708
S'train'
p4709
aS'History'
p4710
aS'Battle_of_Salamis'
p4711
asS'2629'
p4712
(lp4713
S'train'
p4714
aS'History'
p4715
aS'Thebes,_Greece'
p4716
asS'105445'
p4717
(lp4718
S'train'
p4719
aS'History'
p4720
aS'War_of_the_Austrian_Succession'
p4721
asS'3289'
p4722
(lp4723
S'train'
p4724
aS'History'
p4725
aS'War_of_the_Austrian_Succession'
p4726
asS'3287'
p4727
(lp4728
S'train'
p4729
aS'History'
p4730
aS'Napoleon_III'
p4731
asS'3445'
p4732
(lp4733
S'train'
p4734
aS'History'
p4735
aS'Cato_Street_Conspiracy'
p4736
asS'3443'
p4737
(lp4738
S'train'
p4739
aS'History'
p4740
aS'Pilgrimage_of_Grace'
p4741
asS'2757'
p4742
(lp4743
S'train'
p4744
aS'History'
p4745
aS'Lithuania'
p4746
asS'2755'
p4747
(lp4748
S'train'
p4749
aS'History'
p4750
aS'Georges_Clemenceau'
p4751
asS'192533'
p4752
(lp4753
S'train'
p4754
aS'History'
p4755
aS'Romania'
p4756
asS'198077'
p4757
(lp4758
S'train'
p4759
aS'History'
p4760
aS'Timur'
p4761
asS'108641'
p4762
(lp4763
S'train'
p4764
aS'History'
p4765
aS'Sam_Houston'
p4766
asS'4017'
p4767
(lp4768
S'train'
p4769
aS'History'
p4770
aS'Ming_Dynasty'
p4771
asS'102003'
p4772
(lp4773
S'train'
p4774
aS'History'
p4775
aS'Mozambique'
p4776
asS'112533'
p4777
(lp4778
S'train'
p4779
aS'History'
p4780
aS'Buenos_Aires'
p4781
asS'121671'
p4782
(lp4783
S'train'
p4784
aS'History'
p4785
aS'Sam_Houston'
p4786
asS'122419'
p4787
(lp4788
S'train'
p4789
aS'History'
p4790
aS'Morocco'
p4791
asS'2827'
p4792
(lp4793
S'train'
p4794
aS'History'
p4795
aS'James_VI_and_I'
p4796
asS'102641'
p4797
(lp4798
S'train'
p4799
aS'History'
p4800
aS'Idi_Amin'
p4801
asS'102315'
p4802
(lp4803
S'train'
p4804
aS'History'
p4805
aS'Giuseppe_Mazzini'
p4806
asS'123665'
p4807
(lp4808
S'train'
p4809
aS'History'
p4810
aS'Peru'
p4811
asS'198477'
p4812
(lp4813
S'train'
p4814
aS'History'
p4815
aS'John_Brown_(abolitionist)'
p4816
asS'108423'
p4817
(lp4818
S'train'
p4819
aS'History'
p4820
aS'Benjamin_Franklin'
p4821
asS'122255'
p4822
(lp4823
S'train'
p4824
aS'History'
p4825
aS'Mark_Antony'
p4826
asS'207173'
p4827
(lp4828
S'train'
p4829
aS'History'
p4830
aS'San_Francisco'
p4831
asS'122257'
p4832
(lp4833
S'train'
p4834
aS'History'
p4835
aS'Safavid_dynasty'
p4836
asS'113931'
p4837
(lp4838
S'train'
p4839
aS'History'
p4840
aS'Suleiman_the_Magnificent'
p4841
asS'123307'
p4842
(lp4843
S'train'
p4844
aS'History'
p4845
aS'Mapp_v._Ohio'
p4846
asS'113939'
p4847
(lp4848
S'train'
p4849
aS'History'
p4850
aS'Belgium'
p4851
asS'2975'
p4852
(lp4853
S'train'
p4854
aS'History'
p4855
aS'Treaty_of_Utrecht'
p4856
asS'3029'
p4857
(lp4858
S'train'
p4859
aS'History'
p4860
aS'Battle_of_Bouvines'
p4861
asS'1683'
p4862
(lp4863
S'train'
p4864
aS'History'
p4865
aS'Franklin_Pierce'
p4866
asS'123785'
p4867
(lp4868
S'train'
p4869
aS'History'
p4870
aS'Wars_of_the_Roses'
p4871
asS'122341'
p4872
(lp4873
S'train'
p4874
aS'History'
p4875
aS'Peterloo_Massacre'
p4876
asS'118537'
p4877
(lp4878
S'train'
p4879
aS'History'
p4880
aS'Roger_B._Taney'
p4881
asS'103063'
p4882
(lp4883
S'train'
p4884
aS'History'
p4885
aS'Spanish_Civil_War'
p4886
asS'109593'
p4887
(lp4888
S'train'
p4889
aS'History'
p4890
aS'Woodrow_Wilson'
p4891
asS'196387'
p4892
(lp4893
S'train'
p4894
aS'History'
p4895
aS'Han_Dynasty'
p4896
asS'106549'
p4897
(lp4898
S'train'
p4899
aS'History'
p4900
aS'Edward_the_Confessor'
p4901
asS'202129'
p4902
(lp4903
S'train'
p4904
aS'History:World'
p4905
aS'Aztec'
p4906
asS'196383'
p4907
(lp4908
S'train'
p4909
aS'History'
p4910
aS'Battle_of_Gettysburg'
p4911
asS'194719'
p4912
(lp4913
S'train'
p4914
aS'History'
p4915
aS'The_Sorrows_of_Young_Werther'
p4916
asS'122323'
p4917
(lp4918
S'train'
p4919
aS'History'
p4920
aS'Indonesia'
p4921
asS'207771'
p4922
(lp4923
S'train'
p4924
aS'History'
p4925
aS'Theseus'
p4926
asS'193063'
p4927
(lp4928
S'train'
p4929
aS'History'
p4930
aS'Saint_Petersburg'
p4931
asS'123237'
p4932
(lp4933
S'train'
p4934
aS'History'
p4935
aS'Theodore_Roosevelt'
p4936
asS'212095'
p4937
(lp4938
S'train'
p4939
aS'History'
p4940
aS'Greece'
p4941
asS'115401'
p4942
(lp4943
S'train'
p4944
aS'History'
p4945
aS'Battle_of_Stalingrad'
p4946
asS'111129'
p4947
(lp4948
S'train'
p4949
aS'History'
p4950
aS'Louis_XV_of_France'
p4951
asS'115409'
p4952
(lp4953
S'train'
p4954
aS'History'
p4955
aS'Seneca_Falls_Convention'
p4956
asS'120443'
p4957
(lp4958
S'train'
p4959
aS'History'
p4960
aS'Septimius_Severus'
p4961
asS'110653'
p4962
(lp4963
S'train'
p4964
aS'History'
p4965
aS'Georgia_(country)'
p4966
asS'109873'
p4967
(lp4968
S'train'
p4969
aS'History'
p4970
aS'Louis_XI_of_France'
p4971
asS'109773'
p4972
(lp4973
S'train'
p4974
aS'History'
p4975
aS'Battle_of_Solferino'
p4976
asS'109777'
p4977
(lp4978
S'train'
p4979
aS'History'
p4980
aS'Coral_Sea'
p4981
asS'197175'
p4982
(lp4983
S'train'
p4984
aS'History'
p4985
aS'Battle_of_Antietam'
p4986
asS'103665'
p4987
(lp4988
S'train'
p4989
aS'History'
p4990
aS'Panic_of_1837'
p4991
asS'110891'
p4992
(lp4993
S'train'
p4994
aS'History'
p4995
aS'Ashanti_Empire'
p4996
asS'110895'
p4997
(lp4998
S'train'
p4999
aS'History'
p5000
aS'Homestead_Strike'
p5001
asS'103467'
p5002
(lp5003
S'train'
p5004
aS'History'
p5005
aS'Profumo_Affair'
p5006
asS'3949'
p5007
(lp5008
S'train'
p5009
aS'History'
p5010
aS'Taiping_Rebellion'
p5011
asS'112629'
p5012
(lp5013
S'train'
p5014
aS'History'
p5015
aS'Council_of_Constance'
p5016
asS'111413'
p5017
(lp5018
S'train'
p5019
aS'History'
p5020
aS'William_the_Conqueror'
p5021
asS'189279'
p5022
(lp5023
S'train'
p5024
aS'History'
p5025
aS'Texas'
p5026
asS'107947'
p5027
(lp5028
S'train'
p5029
aS'History'
p5030
aS'Decembrist_revolt'
p5031
asS'193277'
p5032
(lp5033
S'train'
p5034
aS'History'
p5035
aS'Columbia_River'
p5036
asS'4127'
p5037
(lp5038
S'train'
p5039
aS'History'
p5040
aS'Fashoda_Incident'
p5041
asS'4125'
p5042
(lp5043
S'train'
p5044
aS'History'
p5045
aS'Jawaharlal_Nehru'
p5046
asS'193271'
p5047
(lp5048
S'train'
p5049
aS'History'
p5050
aS'Peter_the_Great'
p5051
asS'189671'
p5052
(lp5053
S'train'
p5054
aS'History'
p5055
aS'Septimius_Severus'
p5056
asS'189679'
p5057
(lp5058
S'train'
p5059
aS'History'
p5060
aS'Wars_of_the_Roses'
p5061
asS'206131'
p5062
(lp5063
S'train'
p5064
aS'History:World'
p5065
aS'Indonesia'
p5066
asS'206137'
p5067
(lp5068
S'train'
p5069
aS'History:Classic'
p5070
aS'Syracuse,_Sicily'
p5071
asS'2753'
p5072
(lp5073
S'train'
p5074
aS'History'
p5075
aS'Hanseatic_League'
p5076
asS'110275'
p5077
(lp5078
S'train'
p5079
aS'History'
p5080
aS'Girolamo_Savonarola'
p5081
asS'110279'
p5082
(lp5083
S'train'
p5084
aS'History'
p5085
aS'Shaka'
p5086
asS'197951'
p5087
(lp5088
S'train'
p5089
aS'History'
p5090
aS'Gamal_Abdel_Nasser'
p5091
asS'114027'
p5092
(lp5093
S'train'
p5094
aS'History'
p5095
aS'Marcus_Licinius_Crassus'
p5096
asS'209539'
p5097
(lp5098
S'train'
p5099
aS'History'
p5100
aS'Switzerland'
p5101
asS'200861'
p5102
(lp5103
S'train'
p5104
aS'History:World'
p5105
aS'Paraguay'
p5106
asS'204813'
p5107
(lp5108
S'train'
p5109
aS'History:American'
p5110
aS'Canada'
p5111
asS'118661'
p5112
(lp5113
S'train'
p5114
aS'History'
p5115
aS'Council_of_Trent'
p5116
asS'117481'
p5117
(lp5118
S'train'
p5119
aS'History'
p5120
aS'Chandragupta_Maurya'
p5121
asS'103845'
p5122
(lp5123
S'train'
p5124
aS'History'
p5125
aS'John_Tyler'
p5126
asS'103515'
p5127
(lp5128
S'train'
p5129
aS'History'
p5130
aS'Cardinal_Mazarin'
p5131
asS'117487'
p5132
(lp5133
S'train'
p5134
aS'History'
p5135
aS'Marcus_Licinius_Crassus'
p5136
asS'206041'
p5137
(lp5138
S'train'
p5139
aS'History:Norse'
p5140
aS'3_(number)'
p5141
asS'193381'
p5142
(lp5143
S'train'
p5144
aS'History'
p5145
aS'Leviathan_(book)'
p5146
asS'116289'
p5147
(lp5148
S'train'
p5149
aS'History'
p5150
aS'Safavid_dynasty'
p5151
asS'121315'
p5152
(lp5153
S'train'
p5154
aS'History'
p5155
aS'Edward'
p5156
asS'120245'
p5157
(lp5158
S'train'
p5159
aS'History'
p5160
aS'Peterloo_Massacre'
p5161
asS'189303'
p5162
(lp5163
S'train'
p5164
aS'History'
p5165
aS'Wars_of_the_Roses'
p5166
asS'2563'
p5167
(lp5168
S'train'
p5169
aS'History'
p5170
aS'Attila'
p5171
asS'4351'
p5172
(lp5173
S'train'
p5174
aS'History'
p5175
aS'Rum_Rebellion'
p5176
asS'2367'
p5177
(lp5178
S'train'
p5179
aS'History'
p5180
aS'Hartford_Convention'
p5181
asS'2363'
p5182
(lp5183
S'train'
p5184
aS'History'
p5185
aS'Andrew_Jackson'
p5186
asS'205143'
p5187
(lp5188
S'train'
p5189
aS'History:Classic'
p5190
aS'Thebes,_Greece'
p5191
asS'194399'
p5192
(lp5193
S'train'
p5194
aS'History'
p5195
aS'Maryland'
p5196
asS'203665'
p5197
(lp5198
S'train'
p5199
aS'History:World'
p5200
aS'Peru'
p5201
asS'194395'
p5202
(lp5203
S'train'
p5204
aS'History'
p5205
aS'Vienna'
p5206
asS'1863'
p5207
(lp5208
S'train'
p5209
aS'History'
p5210
aS'Seneca_Falls_Convention'
p5211
asS'201809'
p5212
(lp5213
S'train'
p5214
aS'History:Europe'
p5215
aS'Battle_of_Stalingrad'
p5216
asS'3727'
p5217
(lp5218
S'train'
p5219
aS'History'
p5220
aS'Football_War'
p5221
asS'209313'
p5222
(lp5223
S'train'
p5224
aS'History'
p5225
aS'Aztec'
p5226
asS'102811'
p5227
(lp5228
S'train'
p5229
aS'History'
p5230
aS'Night_of_the_Long_Knives'
p5231
asS'210125'
p5232
(lp5233
S'train'
p5234
aS'History'
p5235
aS'Ireland'
p5236
asS'210121'
p5237
(lp5238
S'train'
p5239
aS'History'
p5240
aS'San_Francisco'
p5241
asS'192631'
p5242
(lp5243
S'train'
p5244
aS'History'
p5245
aS'Vandals'
p5246
asS'101353'
p5247
(lp5248
S'train'
p5249
aS'History'
p5250
aS'Parthian_Empire'
p5251
asS'2101'
p5252
(lp5253
S'train'
p5254
aS'History'
p5255
aS'Mapp_v._Ohio'
p5256
asS'2639'
p5257
(lp5258
S'train'
p5259
aS'History'
p5260
aS'Mark_Antony'
p5261
asS'2637'
p5262
(lp5263
S'train'
p5264
aS'History'
p5265
aS'Cyrus_the_Great'
p5266
asS'122067'
p5267
(lp5268
S'train'
p5269
aS'History'
p5270
aS'Francisco_I._Madero'
p5271
asS'122065'
p5272
(lp5273
S'train'
p5274
aS'History'
p5275
aS'Kamakura_shogunate'
p5276
asS'190091'
p5277
(lp5278
S'train'
p5279
aS'History'
p5280
aS'Battle_of_Gettysburg'
p5281
asS'200449'
p5282
(lp5283
S'train'
p5284
aS'History:American'
p5285
aS'California'
p5286
asS'118891'
p5287
(lp5288
S'train'
p5289
aS'History'
p5290
aS'Saladin'
p5291
asS'3433'
p5292
(lp5293
S'train'
p5294
aS'History'
p5295
aS'Jameson_Raid'
p5296
asS'208273'
p5297
(lp5298
S'train'
p5299
aS'History'
p5300
aS'Marbury_v._Madison'
p5301
asS'3435'
p5302
(lp5303
S'train'
p5304
aS'History'
p5305
aS'Edict_of_Nantes'
p5306
asS'2035'
p5307
(lp5308
S'train'
p5309
aS'History'
p5310
aS'California'
p5311
asS'2033'
p5312
(lp5313
S'train'
p5314
aS'History'
p5315
aS'Whiskey_Rebellion'
p5316
asS'121889'
p5317
(lp5318
S'train'
p5319
aS'History'
p5320
aS'Georgia_(U.S._state)'
p5321
asS'105217'
p5322
(lp5323
S'train'
p5324
aS'History'
p5325
aS'Prague_Spring'
p5326
asS'203061'
p5327
(lp5328
S'train'
p5329
aS'History:American'
p5330
aS'San_Francisco'
p5331
asS'210231'
p5332
(lp5333
S'train'
p5334
aS'History'
p5335
aS'Egypt'
p5336
asS'113653'
p5337
(lp5338
S'train'
p5339
aS'History'
p5340
aS'Kansas-Nebraska_Act'
p5341
asS'3233'
p5342
(lp5343
S'train'
p5344
aS'History'
p5345
aS'Concordat_of_Worms'
p5346
asS'3651'
p5347
(lp5348
S'train'
p5349
aS'History'
p5350
aS'Louis_XIV_of_France'
p5351
asS'102077'
p5352
(lp5353
S'train'
p5354
aS'History'
p5355
aS'Georges_Clemenceau'
p5356
asS'122403'
p5357
(lp5358
S'train'
p5359
aS'History'
p5360
aS'Ottoman_Empire'
p5361
asS'121685'
p5362
(lp5363
S'train'
p5364
aS'History'
p5365
aS'Thailand'
p5366
asS'122405'
p5367
(lp5368
S'train'
p5369
aS'History'
p5370
aS'Porfirio_Diaz'
p5371
asS'194375'
p5372
(lp5373
S'train'
p5374
aS'History'
p5375
aS'Jawaharlal_Nehru'
p5376
asS'122793'
p5377
(lp5378
S'train'
p5379
aS'History'
p5380
aS'Jacquerie'
p5381
asS'190383'
p5382
(lp5383
S'train'
p5384
aS'History'
p5385
aS'Harry_S._Truman'
p5386
asS'195169'
p5387
(lp5388
S'train'
p5389
aS'History'
p5390
aS'Harold_Godwinson'
p5391
asS'102673'
p5392
(lp5393
S'train'
p5394
aS'History'
p5395
aS'Credit_Mobilier_of_America_scandal'
p5396
asS'211299'
p5397
(lp5398
S'train'
p5399
aS'History'
p5400
aS'Ohio'
p5401
asS'1617'
p5402
(lp5403
S'train'
p5404
aS'History'
p5405
aS'Trent_Affair'
p5406
asS'211295'
p5407
(lp5408
S'train'
p5409
aS'History'
p5410
aS'Nigeria'
p5411
asS'123681'
p5412
(lp5413
S'train'
p5414
aS'History'
p5415
aS'Bavaria'
p5416
asS'1787'
p5417
(lp5418
S'train'
p5419
aS'History'
p5420
aS'Ostend_Manifesto'
p5421
asS'113901'
p5422
(lp5423
S'train'
p5424
aS'History'
p5425
aS'Timur'
p5426
asS'207149'
p5427
(lp5428
S'train'
p5429
aS'History'
p5430
aS'Athens'
p5431
asS'3041'
p5432
(lp5433
S'train'
p5434
aS'History'
p5435
aS'Henry_III_of_France'
p5436
asS'197719'
p5437
(lp5438
S'train'
p5439
aS'History'
p5440
aS'Abraham_Lincoln'
p5441
asS'115761'
p5442
(lp5443
S'train'
p5444
aS'History'
p5445
aS'Maine'
p5446
asS'107761'
p5447
(lp5448
S'train'
p5449
aS'History'
p5450
aS'Morocco'
p5451
asS'3643'
p5452
(lp5453
S'train'
p5454
aS'History'
p5455
aS'Germany'
p5456
asS'202681'
p5457
(lp5458
S'train'
p5459
aS'History:Europe'
p5460
aS'Sweden'
p5461
asS'100745'
p5462
(lp5463
S'train'
p5464
aS'History'
p5465
aS'Paraguayan_War'
p5466
asS'4339'
p5467
(lp5468
S'train'
p5469
aS'History'
p5470
aS'Mamluk'
p5471
asS'204819'
p5472
(lp5473
S'train'
p5474
aS'History:American'
p5475
aS'Philadelphia'
p5476
asS'4333'
p5477
(lp5478
S'train'
p5479
aS'History'
p5480
aS'Indonesia'
p5481
asS'4331'
p5482
(lp5483
S'train'
p5484
aS'History'
p5485
aS'Francisco_I._Madero'
p5486
asS'123757'
p5487
(lp5488
S'train'
p5489
aS'History'
p5490
aS'Abraham_Lincoln'
p5491
asS'206303'
p5492
(lp5493
S'train'
p5494
aS'History:Europe'
p5495
aS'Portugal'
p5496
asS'106555'
p5497
(lp5498
S'train'
p5499
aS'History'
p5500
aS'Spanish_Civil_War'
p5501
asS'109585'
p5502
(lp5503
S'train'
p5504
aS'History'
p5505
aS'Peterloo_Massacre'
p5506
asS'123751'
p5507
(lp5508
S'train'
p5509
aS'History'
p5510
aS'Julius_Caesar'
p5511
asS'106559'
p5512
(lp5513
S'train'
p5514
aS'History'
p5515
aS'Simon_Bolivar'
p5516
asS'211535'
p5517
(lp5518
S'train'
p5519
aS'History'
p5520
aS'Netherlands'
p5521
asS'106827'
p5522
(lp5523
S'train'
p5524
aS'History'
p5525
aS'Jawaharlal_Nehru'
p5526
asS'109089'
p5527
(lp5528
S'train'
p5529
aS'History'
p5530
aS'Otto_von_Bismarck'
p5531
asS'193015'
p5532
(lp5533
S'train'
p5534
aS'History'
p5535
aS'Battle_of_the_Bulge'
p5536
asS'207097'
p5537
(lp5538
S'train'
p5539
aS'History'
p5540
aS'Zimbabwe'
p5541
asS'111245'
p5542
(lp5543
S'train'
p5544
aS'History'
p5545
aS'Florida'
p5546
asS'111241'
p5547
(lp5548
S'train'
p5549
aS'History'
p5550
aS'Italy'
p5551
asS'111773'
p5552
(lp5553
S'train'
p5554
aS'History'
p5555
aS'Battle_of_Gaugamela'
p5556
asS'111249'
p5557
(lp5558
S'train'
p5559
aS'History'
p5560
aS'Axum'
p5561
asS'118419'
p5562
(lp5563
S'train'
p5564
aS'History'
p5565
aS'Battle_of_Plassey'
p5566
asS'4209'
p5567
(lp5568
S'train'
p5569
aS'History'
p5570
aS'Council_of_Chalcedon'
p5571
asS'2497'
p5572
(lp5573
S'train'
p5574
aS'History'
p5575
aS'Hittites'
p5576
asS'4207'
p5577
(lp5578
S'train'
p5579
aS'History'
p5580
aS'Georgia_(country)'
p5581
asS'109761'
p5582
(lp5583
S'train'
p5584
aS'History'
p5585
aS'Battle_of_the_Bulge'
p5586
asS'123731'
p5587
(lp5588
S'train'
p5589
aS'History'
p5590
aS'Spanish-American_War'
p5591
asS'193127'
p5592
(lp5593
S'train'
p5594
aS'History'
p5595
aS'Rene_Descartes'
p5596
asS'193125'
p5597
(lp5598
S'train'
p5599
aS'History'
p5600
aS'Vikings'
p5601
asS'111391'
p5602
(lp5603
S'train'
p5604
aS'History'
p5605
aS'Chester_A._Arthur'
p5606
asS'193121'
p5607
(lp5608
S'train'
p5609
aS'History'
p5610
aS'Kublai_Khan'
p5611
asS'103479'
p5612
(lp5613
S'train'
p5614
aS'History'
p5615
aS'Treaty_of_Brest-Litovsk'
p5616
asS'1521'
p5617
(lp5618
S'train'
p5619
aS'History'
p5620
aS'Henry_Cabot_Lodge,_Jr.'
p5621
asS'106487'
p5622
(lp5623
S'train'
p5624
aS'History'
p5625
aS'Battle_of_Salamis'
p5626
asS'106485'
p5627
(lp5628
S'train'
p5629
aS'History'
p5630
aS'Battle_of_Shiloh'
p5631
asS'3951'
p5632
(lp5633
S'train'
p5634
aS'History'
p5635
aS'Axum'
p5636
asS'101009'
p5637
(lp5638
S'train'
p5639
aS'History'
p5640
aS'Great_Fire_of_London'
p5641
asS'4113'
p5642
(lp5643
S'train'
p5644
aS'History'
p5645
aS'Yuan_Dynasty'
p5646
asS'114103'
p5647
(lp5648
S'train'
p5649
aS'History'
p5650
aS'Martin_Van_Buren'
p5651
asS'201491'
p5652
(lp5653
S'train'
p5654
aS'History:American'
p5655
aS'Ku_Klux_Klan'
p5656
asS'4119'
p5657
(lp5658
S'train'
p5659
aS'History'
p5660
aS'Paraguayan_War'
p5661
asS'209649'
p5662
(lp5663
S'train'
p5664
aS'History'
p5665
aS'Pompey'
p5666
asS'201651'
p5667
(lp5668
S'train'
p5669
aS'History:Norse'
p5670
aS'Stanford_prison_experiment'
p5671
asS'103219'
p5672
(lp5673
S'train'
p5674
aS'History'
p5675
aS'John_Foster_Dulles'
p5676
asS'103217'
p5677
(lp5678
S'train'
p5679
aS'History'
p5680
aS'Selim_I'
p5681
asS'110287'
p5682
(lp5683
S'train'
p5684
aS'History'
p5685
aS'First_Crusade'
p5686
asS'205033'
p5687
(lp5688
S'train'
p5689
aS'History:World'
p5690
aS'Kenya'
p5691
asS'189429'
p5692
(lp5693
S'train'
p5694
aS'History'
p5695
aS'Tokugawa_shogunate'
p5696
asS'104081'
p5697
(lp5698
S'train'
p5699
aS'History'
p5700
aS'Thomas_Jefferson'
p5701
asS'104083'
p5702
(lp5703
S'train'
p5704
aS'History'
p5705
aS"Shays'_Rebellion"
p5706
asS'110049'
p5707
(lp5708
S'train'
p5709
aS'History'
p5710
aS'Jawaharlal_Nehru'
p5711
asS'118673'
p5712
(lp5713
S'train'
p5714
aS'History'
p5715
aS'Battle_of_Gaugamela'
p5716
asS'193399'
p5717
(lp5718
S'train'
p5719
aS'History'
p5720
aS'Credit_Mobilier_of_America_scandal'
p5721
asS'110917'
p5722
(lp5723
S'train'
p5724
aS'History'
p5725
aS'Caroline_affair'
p5726
asS'110915'
p5727
(lp5728
S'train'
p5729
aS'History'
p5730
aS'Battle_of_Solferino'
p5731
asS'197811'
p5732
(lp5733
S'train'
p5734
aS'History'
p5735
aS'Simon_Bolivar'
p5736
asS'116293'
p5737
(lp5738
S'train'
p5739
aS'History'
p5740
aS'Ottoman_Empire'
p5741
asS'2775'
p5742
(lp5743
S'train'
p5744
aS'History'
p5745
aS'Otto_I,_Holy_Roman_Emperor'
p5746
asS'121871'
p5747
(lp5748
S'train'
p5749
aS'History'
p5750
aS'Kublai_Khan'
p5751
asS'211367'
p5752
(lp5753
S'train'
p5754
aS'History'
p5755
aS'Constantine_the_Great'
p5756
asS'193647'
p5757
(lp5758
S'train'
p5759
aS'History'
p5760
aS'Switzerland'
p5761
asS'209491'
p5762
(lp5763
S'train'
p5764
aS'History'
p5765
aS'Ethiopia'
p5766
asS'2359'
p5767
(lp5768
S'train'
p5769
aS'History'
p5770
aS'Horace_Greeley'
p5771
asS'101129'
p5772
(lp5773
S'train'
p5774
aS'History'
p5775
aS'Henry_VII_of_England'
p5776
asS'2351'
p5777
(lp5778
S'train'
p5779
aS'History'
p5780
aS'Sam_Houston'
p5781
asS'193489'
p5782
(lp5783
S'train'
p5784
aS'History'
p5785
aS'Mexico'
p5786
asS'2355'
p5787
(lp5788
S'train'
p5789
aS'History'
p5790
aS"King_Philip's_War"
p5791
asS'121273'
p5792
(lp5793
S'train'
p5794
aS'History'
p5795
aS'Elizabeth_I_of_England'
p5796
asS'203653'
p5797
(lp5798
S'train'
p5799
aS'History:American'
p5800
aS'Benjamin_Franklin'
p5801
asS'194387'
p5802
(lp5803
S'train'
p5804
aS'History'
p5805
aS'Charlemagne'
p5806
asS'189959'
p5807
(lp5808
S'train'
p5809
aS'History'
p5810
aS'Tokugawa_Ieyasu'
p5811
asS'1895'
p5812
(lp5813
S'train'
p5814
aS'History'
p5815
aS'Lochner_v._New_York'
p5816
asS'191395'
p5817
(lp5818
S'train'
p5819
aS'History'
p5820
aS'Great_Society'
p5821
asS'3731'
p5822
(lp5823
S'train'
p5824
aS'History'
p5825
aS'Jawaharlal_Nehru'
p5826
asS'117211'
p5827
(lp5828
S'train'
p5829
aS'History'
p5830
aS'California'
p5831
asS'2135'
p5832
(lp5833
S'train'
p5834
aS'History'
p5835
aS'Plessy_v._Ferguson'
p5836
asS'2131'
p5837
(lp5838
S'train'
p5839
aS'History'
p5840
aS'Woodrow_Wilson'
p5841
asS'120273'
p5842
(lp5843
S'train'
p5844
aS'History'
p5845
aS'Treaty_of_Utrecht'
p5846
asS'193735'
p5847
(lp5848
S'train'
p5849
aS'History'
p5850
aS'Robert_Walpole'
p5851
asS'2641'
p5852
(lp5853
S'train'
p5854
aS'History'
p5855
aS'Peisistratos'
p5856
asS'197547'
p5857
(lp5858
S'train'
p5859
aS'History'
p5860
aS'Poland'
p5861
asS'2645'
p5862
(lp5863
S'train'
p5864
aS'History'
p5865
aS'Mali_Empire'
p5866
asS'197543'
p5867
(lp5868
S'train'
p5869
aS'History'
p5870
aS'Attila'
p5871
asS'193833'
p5872
(lp5873
S'train'
p5874
aS'History'
p5875
aS'Bulgaria'
p5876
asS'116275'
p5877
(lp5878
S'train'
p5879
aS'History'
p5880
aS'Zoot_Suit_Riots'
p5881
asS'211353'
p5882
(lp5883
S'train'
p5884
aS'History'
p5885
aS'Korean_War'
p5886
asS'102481'
p5887
(lp5888
S'train'
p5889
aS'History'
p5890
aS'Akbar'
p5891
asS'190461'
p5892
(lp5893
S'train'
p5894
aS'History'
p5895
aS'Daniel_Webster'
p5896
asS'113641'
p5897
(lp5898
S'train'
p5899
aS'History'
p5900
aS'Vietnam'
p5901
asS'105267'
p5902
(lp5903
S'train'
p5904
aS'History'
p5905
aS'William_H._Seward'
p5906
asS'112519'
p5907
(lp5908
S'train'
p5909
aS'History'
p5910
aS'John_Tyler'
p5911
asS'113821'
p5912
(lp5913
S'train'
p5914
aS'History'
p5915
aS'Maryland'
p5916
asS'211997'
p5917
(lp5918
S'train'
p5919
aS'History'
p5920
aS'Oliver_Cromwell'
p5921
asS'204225'
p5922
(lp5923
S'train'
p5924
aS'History:Classic'
p5925
aS'Sicily'
p5926
asS'196709'
p5927
(lp5928
S'train'
p5929
aS'History'
p5930
aS'Robert_Walpole'
p5931
asS'102063'
p5932
(lp5933
S'train'
p5934
aS'History'
p5935
aS'Belgium'
p5936
asS'192391'
p5937
(lp5938
S'train'
p5939
aS'History'
p5940
aS'Gamal_Abdel_Nasser'
p5941
asS'3557'
p5942
(lp5943
S'train'
p5944
aS'History'
p5945
aS'Giuseppe_Mazzini'
p5946
asS'194361'
p5947
(lp5948
S'train'
p5949
aS'History'
p5950
aS'Battle_of_Hastings'
p5951
asS'2079'
p5952
(lp5953
S'train'
p5954
aS'History'
p5955
aS'James_Monroe'
p5956
asS'210355'
p5957
(lp5958
S'train'
p5959
aS'History'
p5960
aS'East_Germany'
p5961
asS'203435'
p5962
(lp5963
S'train'
p5964
aS'History:American'
p5965
aS'Hawaii'
p5966
asS'113735'
p5967
(lp5968
S'train'
p5969
aS'History'
p5970
aS'Parthian_Empire'
p5971
asS'105461'
p5972
(lp5973
S'train'
p5974
aS'History'
p5975
aS'Zimbabwe'
p5976
asS'102661'
p5977
(lp5978
S'train'
p5979
aS'History'
p5980
aS'Seneca_Falls_Convention'
p5981
asS'123327'
p5982
(lp5983
S'train'
p5984
aS'History'
p5985
aS'Sicily'
p5986
asS'2913'
p5987
(lp5988
S'train'
p5989
aS'History'
p5990
aS'Peterloo_Massacre'
p5991
asS'2917'
p5992
(lp5993
S'train'
p5994
aS'History'
p5995
aS'Battle_of_Culloden'
p5996
asS'2919'
p5997
(lp5998
S'train'
p5999
aS'History'
p6000
aS'Girolamo_Savonarola'
p6001
asS'197727'
p6002
(lp6003
S'train'
p6004
aS'History'
p6005
aS'Harry_S._Truman'
p6006
asS'190113'
p6007
(lp6008
S'train'
p6009
aS'History'
p6010
aS'Meiji_Restoration'
p6011
asS'122507'
p6012
(lp6013
S'train'
p6014
aS'History'
p6015
aS'Domitian'
p6016
asS'196637'
p6017
(lp6018
S'train'
p6019
aS'History'
p6020
aS'First_Battle_of_Bull_Run'
p6021
asS'113911'
p6022
(lp6023
S'train'
p6024
aS'History'
p6025
aS'Diocletian'
p6026
asS'190287'
p6027
(lp6028
S'train'
p6029
aS'History'
p6030
aS'Pakistan'
p6031
asS'107753'
p6032
(lp6033
S'train'
p6034
aS'History'
p6035
aS'Yellow_Turban_Rebellion'
p6036
asS'2493'
p6037
(lp6038
S'train'
p6039
aS'History'
p6040
aS'Romulus_and_Remus'
p6041
asS'108455'
p6042
(lp6043
S'train'
p6044
aS'History'
p6045
aS'Haymarket_affair'
p6046
asS'202323'
p6047
(lp6048
S'train'
p6049
aS'History:World'
p6050
aS'Paraguayan_War'
p6051
asS'202321'
p6052
(lp6053
S'train'
p6054
aS'History:Europe'
p6055
aS'Portugal'
p6056
asS'192485'
p6057
(lp6058
S'train'
p6059
aS'History'
p6060
aS'Argentina'
p6061
asS'4321'
p6062
(lp6063
S'train'
p6064
aS'History'
p6065
aS'Songhai_Empire'
p6066
asS'4323'
p6067
(lp6068
S'train'
p6069
aS'History'
p6070
aS'Battle_of_Manzikert'
p6071
asS'4325'
p6072
(lp6073
S'train'
p6074
aS'History'
p6075
aS'John_A._Macdonald'
p6076
asS'109803'
p6077
(lp6078
S'train'
p6079
aS'History'
p6080
aS'Mamluk'
p6081
asS'109801'
p6082
(lp6083
S'train'
p6084
aS'History'
p6085
aS'Harold_Godwinson'
p6086
asS'123745'
p6087
(lp6088
S'train'
p6089
aS'History'
p6090
aS'Ming_Dynasty'
p6091
asS'194777'
p6092
(lp6093
S'train'
p6094
aS'History'
p6095
aS'Abbasid_Caliphate'
p6096
asS'106567'
p6097
(lp6098
S'train'
p6099
aS'History'
p6100
aS'Benjamin_Harrison'
p6101
asS'108577'
p6102
(lp6103
S'train'
p6104
aS'History'
p6105
aS'Prague_Spring'
p6106
asS'209817'
p6107
(lp6108
S'train'
p6109
aS'History'
p6110
aS'South_Korea'
p6111
asS'122349'
p6112
(lp6113
S'train'
p6114
aS'History'
p6115
aS'Brazil'
p6116
asS'193001'
p6117
(lp6118
S'train'
p6119
aS'History'
p6120
aS'Battle_of_Agincourt'
p6121
asS'122343'
p6122
(lp6123
S'train'
p6124
aS'History'
p6125
aS'Henry_the_Navigator'
p6126
asS'193003'
p6127
(lp6128
S'train'
p6129
aS'History'
p6130
aS'Charles_Maurice_de_Talleyrand-Perigord'
p6131
asS'106817'
p6132
(lp6133
S'train'
p6134
aS'History'
p6135
aS'Treaty_of_Utrecht'
p6136
asS'193005'
p6137
(lp6138
S'train'
p6139
aS'History'
p6140
aS'Maria_Theresa'
p6141
asS'122347'
p6142
(lp6143
S'train'
p6144
aS'History'
p6145
aS'Portugal'
p6146
asS'189925'
p6147
(lp6148
S'train'
p6149
aS'History'
p6150
aS'War_of_the_Spanish_Succession'
p6151
asS'109977'
p6152
(lp6153
S'train'
p6154
aS'History'
p6155
aS'William_the_Conqueror'
p6156
asS'3835'
p6157
(lp6158
S'train'
p6159
aS'History'
p6160
aS'Dahomey'
p6161
asS'109979'
p6162
(lp6163
S'train'
p6164
aS'History'
p6165
aS'Teapot_Dome_scandal'
p6166
asS'4211'
p6167
(lp6168
S'train'
p6169
aS'History'
p6170
aS'Khmer_Empire'
p6171
asS'122321'
p6172
(lp6173
S'train'
p6174
aS'History'
p6175
aS'Maurya_Empire'
p6176
asS'192281'
p6177
(lp6178
S'train'
p6179
aS'History'
p6180
aS'Woodrow_Wilson'
p6181
asS'109711'
p6182
(lp6183
S'train'
p6184
aS'History'
p6185
aS'Cato_Street_Conspiracy'
p6186
asS'109717'
p6187
(lp6188
S'train'
p6189
aS'History'
p6190
aS'Battle_of_Gaugamela'
p6191
asS'193137'
p6192
(lp6193
S'train'
p6194
aS'History'
p6195
aS'Pius'
p6196
asS'108171'
p6197
(lp6198
S'train'
p6199
aS'History'
p6200
aS'Thailand'
p6201
asS'206207'
p6202
(lp6203
S'train'
p6204
aS'History:World'
p6205
aS'Melbourne'
p6206
asS'3093'
p6207
(lp6208
S'train'
p6209
aS'History'
p6210
aS'Robert_Walpole'
p6211
asS'103199'
p6212
(lp6213
S'train'
p6214
aS'History'
p6215
aS'Porfirio_Diaz'
p6216
asS'1539'
p6217
(lp6218
S'train'
p6219
aS'History'
p6220
aS'William_H._Seward'
p6221
asS'189257'
p6222
(lp6223
S'train'
p6224
aS'History'
p6225
aS'Attila'
p6226
asS'4101'
p6227
(lp6228
S'train'
p6229
aS'History'
p6230
aS'Getulio_Vargas'
p6231
asS'109625'
p6232
(lp6233
S'train'
p6234
aS'History'
p6235
aS'Saladin'
p6236
asS'4107'
p6237
(lp6238
S'train'
p6239
aS'History'
p6240
aS'Rum_Rebellion'
p6241
asS'189781'
p6242
(lp6243
S'train'
p6244
aS'History'
p6245
aS'Socialist_Republic_of_Chile'
p6246
asS'209677'
p6247
(lp6248
S'train'
p6249
aS'History'
p6250
aS'Vikings'
p6251
asS'107965'
p6252
(lp6253
S'train'
p6254
aS'History'
p6255
aS'Jay_Treaty'
p6256
asS'193257'
p6257
(lp6258
S'train'
p6259
aS'History'
p6260
aS'Caligula'
p6261
asS'3891'
p6262
(lp6263
S'train'
p6264
aS'History'
p6265
aS'Yellow_Turban_Rebellion'
p6266
asS'3897'
p6267
(lp6268
S'train'
p6269
aS'History'
p6270
aS'Tokugawa_Ieyasu'
p6271
asS'194915'
p6272
(lp6273
S'train'
p6274
aS'History'
p6275
aS'Aaron_Burr'
p6276
asS'197931'
p6277
(lp6278
S'train'
p6279
aS'History'
p6280
aS'Akbar'
p6281
asS'114001'
p6282
(lp6283
S'train'
p6284
aS'History'
p6285
aS'Paris_Commune'
p6286
asS'196041'
p6287
(lp6288
S'train'
p6289
aS'History'
p6290
aS'Diet_of_Worms'
p6291
asS'4079'
p6292
(lp6293
S'train'
p6294
aS'History'
p6295
aS'Safavid_dynasty'
p6296
asS'117299'
p6297
(lp6298
S'train'
p6299
aS'History'
p6300
aS'AEthelred_the_Unready'
p6301
asS'109029'
p6302
(lp6303
S'train'
p6304
aS'History'
p6305
aS'Jay_Treaty'
p6306
asS'4073'
p6307
(lp6308
S'train'
p6309
aS'History'
p6310
aS'Paraguayan_War'
p6311
asS'110903'
p6312
(lp6313
S'train'
p6314
aS'History'
p6315
aS'Girolamo_Savonarola'
p6316
asS'197805'
p6317
(lp6318
S'train'
p6319
aS'History'
p6320
aS'James_Monroe'
p6321
asS'206069'
p6322
(lp6323
S'train'
p6324
aS'History:World'
p6325
aS'Sri_Lanka'
p6326
asS'198483'
p6327
(lp6328
S'train'
p6329
aS'History'
p6330
aS'Ottoman_Empire'
p6331
asS'3639'
p6332
(lp6333
S'train'
p6334
aS'History'
p6335
aS'Switzerland'
p6336
asS'3637'
p6337
(lp6338
S'train'
p6339
aS'History'
p6340
aS'William_the_Conqueror'
p6341
asS'3631'
p6342
(lp6343
S'train'
p6344
aS'History'
p6345
aS'Syracuse,_Sicily'
p6346
asS'117111'
p6347
(lp6348
S'train'
p6349
aS'History'
p6350
aS'Shaka'
p6351
asS'210035'
p6352
(lp6353
S'train'
p6354
aS'History'
p6355
aS'Uganda'
p6356
asS'3507'
p6357
(lp6358
S'train'
p6359
aS'History'
p6360
aS'Henry_I_of_England'
p6361
asS'117449'
p6362
(lp6363
S'train'
p6364
aS'History'
p6365
aS'Francois_Mitterrand'
p6366
asS'122339'
p6367
(lp6368
S'train'
p6369
aS'History'
p6370
aS'Henry_Cabot_Lodge,_Jr.'
p6371
asS'201465'
p6372
(lp6373
S'train'
p6374
aS'History:World'
p6375
aS'India'
p6376
asS'104435'
p6377
(lp6378
S'train'
p6379
aS'History'
p6380
aS'Tammany_Hall'
p6381
asS'117599'
p6382
(lp6383
S'train'
p6384
aS'History'
p6385
aS'Council_of_Constance'
p6386
asS'101117'
p6387
(lp6388
S'train'
p6389
aS'History'
p6390
aS'Kalmar_Union'
p6391
asS'119821'
p6392
(lp6393
S'train'
p6394
aS'History'
p6395
aS'Denmark'
p6396
asS'121205'
p6397
(lp6398
S'train'
p6399
aS'History'
p6400
aS'Thaddeus_Stevens'
p6401
asS'3709'
p6402
(lp6403
S'train'
p6404
aS'History'
p6405
aS'Mao_Zedong'
p6406
asS'1887'
p6407
(lp6408
S'train'
p6409
aS'History'
p6410
aS'Copperhead_(politics)'
p6411
asS'201863'
p6412
(lp6413
S'train'
p6414
aS'History:Europe'
p6415
aS'Cyprus'
p6416
asS'3701'
p6417
(lp6418
S'train'
p6419
aS'History'
p6420
aS'Paraguayan_War'
p6421
asS'1881'
p6422
(lp6423
S'train'
p6424
aS'History'
p6425
aS'Teapot_Dome_scandal'
p6426
asS'194177'
p6427
(lp6428
S'train'
p6429
aS'History'
p6430
aS'Scotland'
p6431
asS'113033'
p6432
(lp6433
S'train'
p6434
aS'History'
p6435
aS'Ashanti_Empire'
p6436
asS'120267'
p6437
(lp6438
S'train'
p6439
aS'History'
p6440
aS'Umayyad_Caliphate'
p6441
asS'196993'
p6442
(lp6443
S'train'
p6444
aS'History'
p6445
aS'Tang_Dynasty'
p6446
asS'104509'
p6447
(lp6448
S'train'
p6449
aS'History'
p6450
aS'Idaho'
p6451
asS'122647'
p6452
(lp6453
S'train'
p6454
aS'History'
p6455
aS'Fashoda_Incident'
p6456
asS'190279'
p6457
(lp6458
S'train'
p6459
aS'History'
p6460
aS'Ivan_the_Terrible'
p6461
asS'204843'
p6462
(lp6463
S'train'
p6464
aS'History:British'
p6465
aS'Oliver_Cromwell'
p6466
asS'122641'
p6467
(lp6468
S'train'
p6469
aS'History'
p6470
aS'Paris_Commune'
p6471
asS'108701'
p6472
(lp6473
S'train'
p6474
aS'History'
p6475
aS'Hugo_Chavez'
p6476
asS'100755'
p6477
(lp6478
S'train'
p6479
aS'History'
p6480
aS'Emilio_Aguinaldo'
p6481
asS'102279'
p6482
(lp6483
S'train'
p6484
aS'History'
p6485
aS'Francois_Mitterrand'
p6486
asS'109677'
p6487
(lp6488
S'train'
p6489
aS'History'
p6490
aS'Benjamin_Harrison'
p6491
asS'102479'
p6492
(lp6493
S'train'
p6494
aS'History'
p6495
aS'Diet_of_Worms'
p6496
asS'190479'
p6497
(lp6498
S'train'
p6499
aS'History'
p6500
aS'Inca_Empire'
p6501
asS'102471'
p6502
(lp6503
S'train'
p6504
aS'History'
p6505
aS'Specie_Circular'
p6506
asS'122423'
p6507
(lp6508
S'train'
p6509
aS'History'
p6510
aS'Spanish-American_War'
p6511
asS'122427'
p6512
(lp6513
S'train'
p6514
aS'History'
p6515
aS'Panic_of_1837'
p6516
asS'193929'
p6517
(lp6518
S'train'
p6519
aS'History'
p6520
aS'Battle_of_the_Bulge'
p6521
asS'196731'
p6522
(lp6523
S'train'
p6524
aS'History'
p6525
aS'Tokugawa_Ieyasu'
p6526
asS'113949'
p6527
(lp6528
S'train'
p6529
aS'History'
p6530
aS'Battle_of_Plassey'
p6531
asS'190617'
p6532
(lp6533
S'train'
p6534
aS'History'
p6535
aS'Peru'
p6536
asS'194357'
p6537
(lp6538
S'train'
p6539
aS'History'
p6540
aS'Georgia_(U.S._state)'
p6541
asS'211509'
p6542
(lp6543
S'train'
p6544
aS'History'
p6545
aS'Julius_Caesar'
p6546
asS'210361'
p6547
(lp6548
S'train'
p6549
aS'History'
p6550
aS'Perseus'
p6551
asS'209117'
p6552
(lp6553
S'train'
p6554
aS'History'
p6555
aS'Russia'
p6556
asS'209119'
p6557
(lp6558
S'train'
p6559
aS'History'
p6560
aS'Nero'
p6561
asS'202915'
p6562
(lp6563
S'train'
p6564
aS'History:World'
p6565
aS'Guatemala'
p6566
asS'115349'
p6567
(lp6568
S'train'
p6569
aS'History'
p6570
aS'Netherlands'
p6571
asS'198335'
p6572
(lp6573
S'train'
p6574
aS'History'
p6575
aS'Opium_Wars'
p6576
asS'190103'
p6577
(lp6578
S'train'
p6579
aS'History'
p6580
aS'Whig_Party_(United_States)'
p6581
asS'106615'
p6582
(lp6583
S'train'
p6584
aS'History'
p6585
aS'Afghanistan'
p6586
asS'121739'
p6587
(lp6588
S'train'
p6589
aS'History'
p6590
aS'Otto_von_Bismarck'
p6591
asS'201611'
p6592
(lp6593
S'train'
p6594
aS'History:World'
p6595
aS'Aztec_Empire'
p6596
asS'111081'
p6597
(lp6598
S'train'
p6599
aS'History'
p6600
aS"Bernardo_O'Higgins"
p6601
asS'108815'
p6602
(lp6603
S'train'
p6604
aS'History'
p6605
aS'Hyksos'
p6606
asS'109367'
p6607
(lp6608
S'train'
p6609
aS'History'
p6610
aS'Taiping_Rebellion'
p6611
asS'123773'
p6612
(lp6613
S'train'
p6614
aS'History'
p6615
aS'Charlemagne'
p6616
asS'208997'
p6617
(lp6618
S'train'
p6619
aS'History'
p6620
aS'Maurya_Empire'
p6621
asS'194767'
p6622
(lp6623
S'train'
p6624
aS'History'
p6625
aS'Illinois'
p6626
asS'202171'
p6627
(lp6628
S'train'
p6629
aS'History:American'
p6630
aS'P._T._Barnum'
p6631
asS'106801'
p6632
(lp6633
S'train'
p6634
aS'History'
p6635
aS'Hugh_Capet'
p6636
asS'189917'
p6637
(lp6638
S'train'
p6639
aS'History'
p6640
aS'Han_Dynasty'
p6641
asS'118473'
p6642
(lp6643
S'train'
p6644
aS'History'
p6645
aS'Henry_VII_of_England'
p6646
asS'4265'
p6647
(lp6648
S'train'
p6649
aS'History'
p6650
aS'Emilio_Aguinaldo'
p6651
asS'4269'
p6652
(lp6653
S'train'
p6654
aS'History'
p6655
aS'Jamaica'
p6656
asS'195961'
p6657
(lp6658
S'train'
p6659
aS'History'
p6660
aS'Peru'
p6661
asS'111261'
p6662
(lp6663
S'train'
p6664
aS'History'
p6665
aS'Football_War'
p6666
asS'109709'
p6667
(lp6668
S'train'
p6669
aS'History'
p6670
aS'Madagascar'
p6671
asS'109707'
p6672
(lp6673
S'train'
p6674
aS'History'
p6675
aS'Cardinal_Mazarin'
p6676
asS'103455'
p6677
(lp6678
S'train'
p6679
aS'History'
p6680
aS'Charles_I_of_England'
p6681
asS'193103'
p6682
(lp6683
S'train'
p6684
aS'History'
p6685
aS'John_Quincy_Adams'
p6686
asS'123177'
p6687
(lp6688
S'train'
p6689
aS'History'
p6690
aS'Idi_Amin'
p6691
asS'3089'
p6692
(lp6693
S'train'
p6694
aS'History'
p6695
aS'Portugal'
p6696
asS'3085'
p6697
(lp6698
S'train'
p6699
aS'History'
p6700
aS'Charles_Stewart_Parnell'
p6701
asS'3087'
p6702
(lp6703
S'train'
p6704
aS'History'
p6705
aS'Jacquerie'
p6706
asS'3705'
p6707
(lp6708
S'train'
p6709
aS'History'
p6710
aS'Oda_Nobunaga'
p6711
asS'3083'
p6712
(lp6713
S'train'
p6714
aS'History'
p6715
aS"Thirty_Years'_War"
p6716
asS'114125'
p6717
(lp6718
S'train'
p6719
aS'History'
p6720
aS'War_of_the_Spanish_Succession'
p6721
asS'189229'
p6722
(lp6723
S'train'
p6724
aS'History'
p6725
aS'Alexander_II_of_Russia'
p6726
asS'193243'
p6727
(lp6728
S'train'
p6729
aS'History'
p6730
aS'Louis_IX_of_France'
p6731
asS'119671'
p6732
(lp6733
S'train'
p6734
aS'History'
p6735
aS'Henry_Cabot_Lodge,_Jr.'
p6736
asS'197239'
p6737
(lp6738
S'train'
p6739
aS'History'
p6740
aS'Cambodia'
p6741
asS'201671'
p6742
(lp6743
S'train'
p6744
aS'History:Europe'
p6745
aS'Ireland'
p6746
asS'103239'
p6747
(lp6748
S'train'
p6749
aS'History'
p6750
aS'Lester_B._Pearson'
p6751
asS'197235'
p6752
(lp6753
S'train'
p6754
aS'History'
p6755
aS'Thomas_Jefferson'
p6756
asS'3889'
p6757
(lp6758
S'train'
p6759
aS'History'
p6760
aS'Opium_Wars'
p6761
asS'190913'
p6762
(lp6763
S'train'
p6764
aS'History'
p6765
aS'William_the_Conqueror'
p6766
asS'123009'
p6767
(lp6768
S'train'
p6769
aS'History'
p6770
aS'Jallianwala_Bagh_massacre'
p6771
asS'118717'
p6772
(lp6773
S'train'
p6774
aS'History'
p6775
aS'Battle_of_Antietam'
p6776
asS'211413'
p6777
(lp6778
S'train'
p6779
aS'History'
p6780
aS'North_Carolina'
p6781
asS'194903'
p6782
(lp6783
S'train'
p6784
aS'History'
p6785
aS'Alfred_the_Great'
p6786
asS'117057'
p6787
(lp6788
S'train'
p6789
aS'History'
p6790
aS'Meiji_Restoration'
p6791
asS'110029'
p6792
(lp6793
S'train'
p6794
aS'History'
p6795
aS'Third_Crusade'
p6796
asS'196057'
p6797
(lp6798
S'train'
p6799
aS'History'
p6800
aS'Aztec_Empire'
p6801
asS'119713'
p6802
(lp6803
S'train'
p6804
aS'History'
p6805
aS'White_Lotus_Rebellion'
p6806
asS'189689'
p6807
(lp6808
S'train'
p6809
aS'History'
p6810
aS'Winston_Churchill'
p6811
asS'201589'
p6812
(lp6813
S'train'
p6814
aS'History:Europe'
p6815
aS"Thirty_Years'_War"
p6816
asS'189131'
p6817
(lp6818
S'train'
p6819
aS'History'
p6820
aS'Georgia_(U.S._state)'
p6821
asS'118619'
p6822
(lp6823
S'train'
p6824
aS'History'
p6825
aS'Council_of_Chalcedon'
p6826
asS'4009'
p6827
(lp6828
S'train'
p6829
aS'History'
p6830
aS'Taiwan'
p6831
asS'3973'
p6832
(lp6833
S'train'
p6834
aS'History'
p6835
aS'Muhammad_Ali_Jinnah'
p6836
asS'3975'
p6837
(lp6838
S'train'
p6839
aS'History'
p6840
aS'Louis_Riel'
p6841
asS'3979'
p6842
(lp6843
S'train'
p6844
aS'History'
p6845
aS'Tang_Dynasty'
p6846
asS'191247'
p6847
(lp6848
S'train'
p6849
aS'History'
p6850
aS'Vienna'
p6851
asS'120105'
p6852
(lp6853
S'train'
p6854
aS'History'
p6855
aS'Syracuse,_Sicily'
p6856
asS'121987'
p6857
(lp6858
S'train'
p6859
aS'History'
p6860
aS'Kalmar_Union'
p6861
asS'110333'
p6862
(lp6863
S'train'
p6864
aS'History'
p6865
aS'Meiji_Restoration'
p6866
asS'205175'
p6867
(lp6868
S'train'
p6869
aS'History:Europe'
p6870
aS'Vienna'
p6871
asS'205179'
p6872
(lp6873
S'train'
p6874
aS'History:World'
p6875
aS'Mexico'
p6876
asS'105113'
p6877
(lp6878
S'train'
p6879
aS'History'
p6880
aS'Hungary'
p6881
asS'197907'
p6882
(lp6883
S'train'
p6884
aS'History'
p6885
aS'Winston_Churchill'
p6886
asS'111751'
p6887
(lp6888
S'train'
p6889
aS'History'
p6890
aS'Hugh_Capet'
p6891
asS'3075'
p6892
(lp6893
S'train'
p6894
aS'History'
p6895
aS'Lollardy'
p6896
asS'106373'
p6897
(lp6898
S'train'
p6899
aS'History'
p6900
aS'Treaty_of_Brest-Litovsk'
p6901
asS'102861'
p6902
(lp6903
S'train'
p6904
aS'History'
p6905
aS'Treaty_of_Brest-Litovsk'
p6906
asS'2487'
p6907
(lp6908
S'train'
p6909
aS'History'
p6910
aS'Cleisthenes'
p6911
asS'2951'
p6912
(lp6913
S'train'
p6914
aS'History'
p6915
aS'Venice'
p6916
asS'2249'
p6917
(lp6918
S'train'
p6919
aS'History'
p6920
aS'Caroline_affair'
p6921
asS'105061'
p6922
(lp6923
S'train'
p6924
aS'History'
p6925
aS'Vienna'
p6926
asS'191081'
p6927
(lp6928
S'train'
p6929
aS'History'
p6930
aS"Shays'_Rebellion"
p6931
asS'105063'
p6932
(lp6933
S'train'
p6934
aS'History'
p6935
aS'Giuseppe_Garibaldi'
p6936
asS'120293'
p6937
(lp6938
S'train'
p6939
aS'History'
p6940
aS'Charles_II_of_England'
p6941
asS'113593'
p6942
(lp6943
S'train'
p6944
aS'History'
p6945
aS'Venice'
p6946
asS'107519'
p6947
(lp6948
S'train'
p6949
aS'History'
p6950
aS'Teutonic_Knights'
p6951
asS'102595'
p6952
(lp6953
S'train'
p6954
aS'History'
p6955
aS'Benjamin_Harrison'
p6956
asS'122279'
p6957
(lp6958
S'train'
p6959
aS'History'
p6960
aS'Joseph_II,_Holy_Roman_Emperor'
p6961
asS'200435'
p6962
(lp6963
S'train'
p6964
aS'History:Europe'
p6965
aS'Gustavus_Adolphus_of_Sweden'
p6966
asS'190045'
p6967
(lp6968
S'train'
p6969
aS'History'
p6970
aS'Mughal_Empire'
p6971
asS'102919'
p6972
(lp6973
S'train'
p6974
aS'History'
p6975
aS'Methodism'
p6976
asS'210209'
p6977
(lp6978
S'train'
p6979
aS'History'
p6980
aS'Oliver_Wendell_Holmes,_Jr.'
p6981
asS'196873'
p6982
(lp6983
S'train'
p6984
aS'History'
p6985
aS'Cambodia'
p6986
asS'2069'
p6987
(lp6988
S'train'
p6989
aS'History'
p6990
aS'Profumo_Affair'
p6991
asS'120363'
p6992
(lp6993
S'train'
p6994
aS'History'
p6995
aS'Treaty_of_Tordesillas'
p6996
asS'2795'
p6997
(lp6998
S'train'
p6999
aS'History'
p7000
aS'Third_Crusade'
p7001
asS'202587'
p7002
(lp7003
S'train'
p7004
aS'History:World'
p7005
aS'Justinian_I'
p7006
asS'122181'
p7007
(lp7008
S'train'
p7009
aS'History'
p7010
aS'Wales'
p7011
asS'193933'
p7012
(lp7013
S'train'
p7014
aS'History'
p7015
aS'Andrew_Jackson'
p7016
asS'122745'
p7017
(lp7018
S'train'
p7019
aS'History'
p7020
aS'Yellow_Turban_Rebellion'
p7021
asS'122741'
p7022
(lp7023
S'train'
p7024
aS'History'
p7025
aS'Joseph_McCarthy'
p7026
asS'208531'
p7027
(lp7028
S'train'
p7029
aS'History'
p7030
aS'Third_Crusade'
p7031
asS'2665'
p7032
(lp7033
S'train'
p7034
aS'History'
p7035
aS'Ancient_Corinth'
p7036
asS'210379'
p7037
(lp7038
S'train'
p7039
aS'History'
p7040
aS'Constantine_the_Great'
p7041
asS'105489'
p7042
(lp7043
S'train'
p7044
aS'History'
p7045
aS'Vietnam_War'
p7046
asS'105485'
p7047
(lp7048
S'train'
p7049
aS'History'
p7050
aS'Wars_of_the_Roses'
p7051
asS'197955'
p7052
(lp7053
S'train'
p7054
aS'History'
p7055
aS"Peasants'_Revolt"
p7056
asS'112407'
p7057
(lp7058
S'train'
p7059
aS'History'
p7060
aS'Philip_II_of_Spain'
p7061
asS'2935'
p7062
(lp7063
S'train'
p7064
aS'History'
p7065
aS'Theoderic_the_Great'
p7066
asS'2931'
p7067
(lp7068
S'train'
p7069
aS'History'
p7070
aS'Charles_I_of_England'
p7071
asS'190133'
p7072
(lp7073
S'train'
p7074
aS'History'
p7075
aS'Timur'
p7076
asS'208451'
p7077
(lp7078
S'train'
p7079
aS'History'
p7080
aS'Charles_XII_of_Sweden'
p7081
asS'190137'
p7082
(lp7083
S'train'
p7084
aS'History'
p7085
aS'Compromise_of_1850'
p7086
asS'122293'
p7087
(lp7088
S'train'
p7089
aS'History'
p7090
aS'Poland'
p7091
asS'113975'
p7092
(lp7093
S'train'
p7094
aS'History'
p7095
aS'Vlad_the_Impaler'
p7096
asS'122297'
p7097
(lp7098
S'train'
p7099
aS'History'
p7100
aS'Khmer_Empire'
p7101
asS'115753'
p7102
(lp7103
S'train'
p7104
aS'History'
p7105
aS'Henry_VII_of_England'
p7106
asS'211797'
p7107
(lp7108
S'train'
p7109
aS'History'
p7110
aS'Mozambique'
p7111
asS'112089'
p7112
(lp7113
S'train'
p7114
aS'History'
p7115
aS'July_Revolution'
p7116
asS'211793'
p7117
(lp7118
S'train'
p7119
aS'History'
p7120
aS'Kansas'
p7121
asS'112571'
p7122
(lp7123
S'train'
p7124
aS'History'
p7125
aS'Profumo_Affair'
p7126
asS'202347'
p7127
(lp7128
S'train'
p7129
aS'History:Europe'
p7130
aS'France'
p7131
asS'108805'
p7132
(lp7133
S'train'
p7134
aS'History'
p7135
aS'Henry_IV_of_France'
p7136
asS'3791'
p7137
(lp7138
S'train'
p7139
aS'History'
p7140
aS'Timur'
p7141
asS'193023'
p7142
(lp7143
S'train'
p7144
aS'History'
p7145
aS'Henry_II_of_England'
p7146
asS'122365'
p7147
(lp7148
S'train'
p7149
aS'History'
p7150
aS'Stephen_A._Douglas'
p7151
asS'193025'
p7152
(lp7153
S'train'
p7154
aS'History'
p7155
aS'Winfield_Scott'
p7156
asS'3167'
p7157
(lp7158
S'train'
p7159
aS'History'
p7160
aS'Golden_Horde'
p7161
asS'193029'
p7162
(lp7163
S'train'
p7164
aS'History'
p7165
aS'Triangle_Shirtwaist_Factory_fire'
p7166
asS'119241'
p7167
(lp7168
S'train'
p7169
aS'History'
p7170
aS'Cleisthenes'
p7171
asS'197059'
p7172
(lp7173
S'train'
p7174
aS'History'
p7175
aS'Teapot_Dome_scandal'
p7176
asS'106745'
p7177
(lp7178
S'train'
p7179
aS'History'
p7180
aS'Huldrych_Zwingli'
p7181
asS'115353'
p7182
(lp7183
S'train'
p7184
aS'History'
p7185
aS'James_VI_and_I'
p7186
asS'109735'
p7187
(lp7188
S'train'
p7189
aS'History'
p7190
aS'Claudius'
p7191
asS'118449'
p7192
(lp7193
S'train'
p7194
aS'History'
p7195
aS'Babur'
p7196
asS'109733'
p7197
(lp7198
S'train'
p7199
aS'History'
p7200
aS'Ashikaga_shogunate'
p7201
asS'115221'
p7202
(lp7203
S'train'
p7204
aS'History'
p7205
aS'Henry_I_of_England'
p7206
asS'197131'
p7207
(lp7208
S'train'
p7209
aS'History'
p7210
aS'Andrew_Jackson'
p7211
asS'197137'
p7212
(lp7213
S'train'
p7214
aS'History'
p7215
aS'Nero'
p7216
asS'107347'
p7217
(lp7218
S'train'
p7219
aS'History'
p7220
aS'Edict_of_Nantes'
p7221
asS'209903'
p7222
(lp7223
S'train'
p7224
aS'History'
p7225
aS'Italy'
p7226
asS'110855'
p7227
(lp7228
S'train'
p7229
aS'History'
p7230
aS'Zollverein'
p7231
asS'193117'
p7232
(lp7233
S'train'
p7234
aS'History'
p7235
aS'Robert_Peel'
p7236
asS'103429'
p7237
(lp7238
S'train'
p7239
aS'History'
p7240
aS'Battle_of_Bosworth_Field'
p7241
asS'193111'
p7242
(lp7243
S'train'
p7244
aS'History'
p7245
aS'Edouard_Manet'
p7246
asS'115533'
p7247
(lp7248
S'train'
p7249
aS'History'
p7250
aS'Anti-Masonic_Party'
p7251
asS'111851'
p7252
(lp7253
S'train'
p7254
aS'History'
p7255
aS'Wilmot_Proviso'
p7256
asS'1519'
p7257
(lp7258
S'train'
p7259
aS'History'
p7260
aS'Cherokee'
p7261
asS'1515'
p7262
(lp7263
S'train'
p7264
aS'History'
p7265
aS'Battle_of_Kings_Mountain'
p7266
asS'111673'
p7267
(lp7268
S'train'
p7269
aS'History'
p7270
aS'July_Revolution'
p7271
asS'193231'
p7272
(lp7273
S'train'
p7274
aS'History'
p7275
aS'William_Pitt_the_Younger'
p7276
asS'111693'
p7277
(lp7278
S'train'
p7279
aS'History'
p7280
aS'Treaty_of_Aix-la-Chapelle_(1748)'
p7281
asS'111691'
p7282
(lp7283
S'train'
p7284
aS'History'
p7285
aS'Portugal'
p7286
asS'110583'
p7287
(lp7288
S'train'
p7289
aS'History'
p7290
aS'Battle_of_Bosworth_Field'
p7291
asS'118599'
p7292
(lp7293
S'train'
p7294
aS'History'
p7295
aS'Francois_Mitterrand'
p7296
asS'192379'
p7297
(lp7298
S'train'
p7299
aS'History'
p7300
aS'Crimean_War'
p7301
asS'108969'
p7302
(lp7303
S'train'
p7304
aS'History'
p7305
aS'War_of_the_Austrian_Succession'
p7306
asS'193389'
p7307
(lp7308
S'train'
p7309
aS'History'
p7310
aS'Benjamin_Franklin'
p7311
asS'103735'
p7312
(lp7313
S'train'
p7314
aS'History'
p7315
aS'Saladin'
p7316
asS'3189'
p7317
(lp7318
S'train'
p7319
aS'History'
p7320
aS'Basil_II'
p7321
asS'201799'
p7322
(lp7323
S'train'
p7324
aS'History:Classic'
p7325
aS'Claudius'
p7326
asS'201591'
p7327
(lp7328
S'train'
p7329
aS'History:World'
p7330
aS'China'
p7331
asS'118623'
p7332
(lp7333
S'train'
p7334
aS'History'
p7335
aS'Rutherford_B._Hayes'
p7336
asS'114063'
p7337
(lp7338
S'train'
p7339
aS'History'
p7340
aS'Charlemagne'
p7341
asS'189693'
p7342
(lp7343
S'train'
p7344
aS'History'
p7345
aS'First_Battle_of_Bull_Run'
p7346
asS'196063'
p7347
(lp7348
S'train'
p7349
aS'History'
p7350
aS'James_VI_and_I'
p7351
asS'4019'
p7352
(lp7353
S'train'
p7354
aS'History'
p7355
aS'Dahomey'
p7356
asS'209725'
p7357
(lp7358
S'train'
p7359
aS'History'
p7360
aS'John_Locke'
p7361
asS'4013'
p7362
(lp7363
S'train'
p7364
aS'History'
p7365
aS'John_A._Macdonald'
p7366
asS'4011'
p7367
(lp7368
S'train'
p7369
aS'History'
p7370
aS'Battle_of_Lepanto'
p7371
asS'195999'
p7372
(lp7373
S'train'
p7374
aS'History'
p7375
aS'Switzerland'
p7376
asS'109045'
p7377
(lp7378
S'train'
p7379
aS'History'
p7380
aS'Lester_B._Pearson'
p7381
asS'109659'
p7382
(lp7383
S'train'
p7384
aS'History'
p7385
aS'Jallianwala_Bagh_massacre'
p7386
asS'3107'
p7387
(lp7388
S'train'
p7389
aS'History'
p7390
aS'Otto_I,_Holy_Roman_Emperor'
p7391
asS'120447'
p7392
(lp7393
S'train'
p7394
aS'History'
p7395
aS'Rum_Rebellion'
p7396
asS'208051'
p7397
(lp7398
S'train'
p7399
aS'History'
p7400
aS'South_Africa'
p7401
asS'191273'
p7402
(lp7403
S'train'
p7404
aS'History'
p7405
aS'Georgia_(U.S._state)'
p7406
asS'120111'
p7407
(lp7408
S'train'
p7409
aS'History'
p7410
aS'Benjamin_Harrison'
p7411
asS'191275'
p7412
(lp7413
S'train'
p7414
aS'History'
p7415
aS'Teapot_Dome_scandal'
p7416
asS'192745'
p7417
(lp7418
S'train'
p7419
aS'History'
p7420
aS'Philip_II_of_Spain'
p7421
asS'190207'
p7422
(lp7423
S'train'
p7424
aS'History'
p7425
aS'Second_Boer_War'
p7426
asS'117463'
p7427
(lp7428
S'train'
p7429
aS'History'
p7430
aS'War_of_the_Austrian_Succession'
p7431
asS'190739'
p7432
(lp7433
S'train'
p7434
aS'History'
p7435
aS'Oliver_Cromwell'
p7436
asS'106349'
p7437
(lp7438
S'train'
p7439
aS'History'
p7440
aS'War_of_the_Pacific'
p7441
asS'3767'
p7442
(lp7443
S'train'
p7444
aS'History'
p7445
aS'Timur'
p7446
asS'3769'
p7447
(lp7448
S'train'
p7449
aS'History'
p7450
aS'Ghana'
p7451
asS'106341'
p7452
(lp7453
S'train'
p7454
aS'History'
p7455
aS'Tammany_Hall'
p7456
asS'3757'
p7457
(lp7458
S'train'
p7459
aS'History'
p7460
aS'Babur'
p7461
asS'102857'
p7462
(lp7463
S'train'
p7464
aS'History'
p7465
aS'William_McKinley'
p7466
asS'2499'
p7467
(lp7468
S'train'
p7469
aS'History'
p7470
aS'Cleisthenes'
p7471
asS'204741'
p7472
(lp7473
S'train'
p7474
aS'History:Europe'
p7475
aS'Poland'
p7476
asS'117263'
p7477
(lp7478
S'train'
p7479
aS'History'
p7480
aS'Fashoda_Incident'
p7481
asS'3565'
p7482
(lp7483
S'train'
p7484
aS'History'
p7485
aS'Battle_of_the_Boyne'
p7486
asS'2495'
p7487
(lp7488
S'train'
p7489
aS'History'
p7490
aS'Lucius_Tarquinius_Superbus'
p7491
asS'105079'
p7492
(lp7493
S'train'
p7494
aS'History'
p7495
aS'George_Washington'
p7496
asS'193561'
p7497
(lp7498
S'train'
p7499
aS'History'
p7500
aS'Prague_Spring'
p7501
asS'209593'
p7502
(lp7503
S'train'
p7504
aS'History'
p7505
aS'Mongolia'
p7506
asS'207617'
p7507
(lp7508
S'train'
p7509
aS'History'
p7510
aS'Battle_of_Hastings'
p7511
asS'190057'
p7512
(lp7513
S'train'
p7514
aS'History'
p7515
aS'Han_Dynasty'
p7516
asS'107505'
p7517
(lp7518
S'train'
p7519
aS'History'
p7520
aS'John_Kenneth_Galbraith'
p7521
asS'122995'
p7522
(lp7523
S'train'
p7524
aS'History'
p7525
aS'James_Monroe'
p7526
asS'109587'
p7527
(lp7528
S'train'
p7529
aS'History'
p7530
aS'Battle_of_Chancellorsville'
p7531
asS'191055'
p7532
(lp7533
S'train'
p7534
aS'History'
p7535
aS'John_Adams'
p7536
asS'2787'
p7537
(lp7538
S'train'
p7539
aS'History'
p7540
aS'Leopold_II_of_Belgium'
p7541
asS'115427'
p7542
(lp7543
S'train'
p7544
aS'History'
p7545
aS'Henry_VII_of_England'
p7546
asS'209045'
p7547
(lp7548
S'train'
p7549
aS'History'
p7550
aS'Vikings'
p7551
asS'113743'
p7552
(lp7553
S'train'
p7554
aS'History'
p7555
aS'Thebes,_Greece'
p7556
asS'106293'
p7557
(lp7558
S'train'
p7559
aS'History'
p7560
aS'Wilmot_Proviso'
p7561
asS'102459'
p7562
(lp7563
S'train'
p7564
aS'History'
p7565
aS'Napoleon_III'
p7566
asS'209287'
p7567
(lp7568
S'train'
p7569
aS'History'
p7570
aS'Third_Crusade'
p7571
asS'2073'
p7572
(lp7573
S'train'
p7574
aS'History'
p7575
aS'Hart_Crane'
p7576
asS'2071'
p7577
(lp7578
S'train'
p7579
aS'History'
p7580
aS'Anti-Masonic_Party'
p7581
asS'2077'
p7582
(lp7583
S'train'
p7584
aS'History'
p7585
aS'Wilmot_Proviso'
p7586
asS'190455'
p7587
(lp7588
S'train'
p7589
aS'History'
p7590
aS'War_of_the_Austrian_Succession'
p7591
asS'196881'
p7592
(lp7593
S'train'
p7594
aS'History'
p7595
aS'Darius_I'
p7596
asS'210783'
p7597
(lp7598
S'train'
p7599
aS'History'
p7600
aS'Blue'
p7601
asS'211099'
p7602
(lp7603
S'train'
p7604
aS'History'
p7605
aS'Vienna'
p7606
asS'107437'
p7607
(lp7608
S'train'
p7609
aS'History'
p7610
aS'Teapot_Dome_scandal'
p7611
asS'106129'
p7612
(lp7613
S'train'
p7614
aS'History'
p7615
aS'Night_of_the_Long_Knives'
p7616
asS'122753'
p7617
(lp7618
S'train'
p7619
aS'History'
p7620
aS'Battle_of_Austerlitz'
p7621
asS'3509'
p7622
(lp7623
S'train'
p7624
aS'History'
p7625
aS'Battle_of_Culloden'
p7626
asS'102637'
p7627
(lp7628
S'train'
p7629
aS'History'
p7630
aS'Sherman_Antitrust_Act'
p7631
asS'102633'
p7632
(lp7633
S'train'
p7634
aS'History'
p7635
aS'Plessy_v._Ferguson'
p7636
asS'3501'
p7637
(lp7638
S'train'
p7639
aS'History'
p7640
aS'Council_of_Constance'
p7641
asS'3503'
p7642
(lp7643
S'train'
p7644
aS'History'
p7645
aS'Treaty_of_Brest-Litovsk'
p7646
asS'102639'
p7647
(lp7648
S'train'
p7649
aS'History'
p7650
aS'Burma'
p7651
asS'194335'
p7652
(lp7653
S'train'
p7654
aS'History'
p7655
aS'Napoleon'
p7656
asS'2673'
p7657
(lp7658
S'train'
p7659
aS'History'
p7660
aS'Darius_I'
p7661
asS'107241'
p7662
(lp7663
S'train'
p7664
aS'History'
p7665
aS'Idi_Amin'
p7666
asS'2675'
p7667
(lp7668
S'train'
p7669
aS'History'
p7670
aS'Vandals'
p7671
asS'209137'
p7672
(lp7673
S'train'
p7674
aS'History'
p7675
aS'Schizophrenia'
p7676
asS'210305'
p7677
(lp7678
S'train'
p7679
aS'History'
p7680
aS'Charles_XII_of_Sweden'
p7681
asS'196661'
p7682
(lp7683
S'train'
p7684
aS'History'
p7685
aS'Paraguayan_War'
p7686
asS'2923'
p7687
(lp7688
S'train'
p7689
aS'History'
p7690
aS'Treaty_of_Utrecht'
p7691
asS'123803'
p7692
(lp7693
S'train'
p7694
aS'History'
p7695
aS'Winston_Churchill'
p7696
asS'122289'
p7697
(lp7698
S'train'
p7699
aS'History'
p7700
aS'Yuan_Dynasty'
p7701
asS'123373'
p7702
(lp7703
S'train'
p7704
aS'History'
p7705
aS'Lyndon_B._Johnson'
p7706
asS'190129'
p7707
(lp7708
S'train'
p7709
aS'History'
p7710
aS'Types_of_volcanic_eruptions'
p7711
asS'104859'
p7712
(lp7713
S'train'
p7714
aS'History'
p7715
aS'Spanish_Civil_War'
p7716
asS'190125'
p7717
(lp7718
S'train'
p7719
aS'History'
p7720
aS"Thirty_Years'_War"
p7721
asS'123573'
p7722
(lp7723
S'train'
p7724
aS'History'
p7725
aS'Etruscan_civilization'
p7726
asS'1985'
p7727
(lp7728
S'train'
p7729
aS'History'
p7730
aS'Whiskey_Rebellion'
p7731
asS'197599'
p7732
(lp7733
S'train'
p7734
aS'History'
p7735
aS'Julius_Caesar'
p7736
asS'197597'
p7737
(lp7738
S'train'
p7739
aS'History'
p7740
aS'Simon_Bolivar'
p7741
asS'1989'
p7742
(lp7743
S'train'
p7744
aS'History'
p7745
aS'Mapp_v._Ohio'
p7746
asS'198009'
p7747
(lp7748
S'train'
p7749
aS'History'
p7750
aS'Attila'
p7751
asS'203289'
p7752
(lp7753
S'train'
p7754
aS'History:Europe'
p7755
aS'Romania'
p7756
asS'115781'
p7757
(lp7758
S'train'
p7759
aS'History'
p7760
aS'Septimius_Severus'
p7761
asS'2813'
p7762
(lp7763
S'train'
p7764
aS'History'
p7765
aS"St._Bartholomew's_Day_massacre"
p7766
asS'209869'
p7767
(lp7768
S'train'
p7769
aS'History'
p7770
aS'Panama'
p7771
asS'119279'
p7772
(lp7773
S'train'
p7774
aS'History'
p7775
aS'Francois_Duvalier'
p7776
asS'122371'
p7777
(lp7778
S'train'
p7779
aS'History'
p7780
aS'Louis_XI_of_France'
p7781
asS'123719'
p7782
(lp7783
S'train'
p7784
aS'History'
p7785
aS'Battle_of_Marathon'
p7786
asS'122379'
p7787
(lp7788
S'train'
p7789
aS'History'
p7790
aS'Golden_Horde'
p7791
asS'212045'
p7792
(lp7793
S'train'
p7794
aS'History'
p7795
aS'Dream'
p7796
asS'122171'
p7797
(lp7798
S'train'
p7799
aS'History'
p7800
aS'Whig_Party_(United_States)'
p7801
asS'3379'
p7802
(lp7803
S'train'
p7804
aS'History'
p7805
aS'Lajos_Kossuth'
p7806
asS'208735'
p7807
(lp7808
S'train'
p7809
aS'History'
p7810
aS'Aztec_Empire'
p7811
asS'3371'
p7812
(lp7813
S'train'
p7814
aS'History'
p7815
aS'Fourth_Crusade'
p7816
asS'108491'
p7817
(lp7818
S'train'
p7819
aS'History'
p7820
aS'Georgia_(U.S._state)'
p7821
asS'190931'
p7822
(lp7823
S'train'
p7824
aS'History'
p7825
aS'Peter_the_Great'
p7826
asS'192981'
p7827
(lp7828
S'train'
p7829
aS'History'
p7830
aS'Rutherford_B._Hayes'
p7831
asS'109721'
p7832
(lp7833
S'train'
p7834
aS'History'
p7835
aS'Otto_I,_Holy_Roman_Emperor'
p7836
asS'119181'
p7837
(lp7838
S'train'
p7839
aS'History'
p7840
aS'Frederick_the_Great'
p7841
asS'109727'
p7842
(lp7843
S'train'
p7844
aS'History'
p7845
aS'Richard_Nixon'
p7846
asS'192363'
p7847
(lp7848
S'train'
p7849
aS'History'
p7850
aS'Attila'
p7851
asS'115255'
p7852
(lp7853
S'train'
p7854
aS'History'
p7855
aS'Maurya_Empire'
p7856
asS'197105'
p7857
(lp7858
S'train'
p7859
aS'History'
p7860
aS'Simon_Bolivar'
p7861
asS'193169'
p7862
(lp7863
S'train'
p7864
aS'History'
p7865
aS'Pompey'
p7866
asS'103437'
p7867
(lp7868
S'train'
p7869
aS'History'
p7870
aS'Chiang_Kai-shek'
p7871
asS'208881'
p7872
(lp7873
S'train'
p7874
aS'History'
p7875
aS'Quebec'
p7876
asS'108121'
p7877
(lp7878
S'train'
p7879
aS'History'
p7880
aS'Daniel_Webster'
p7881
asS'193167'
p7882
(lp7883
S'train'
p7884
aS'History'
p7885
aS'Abbasid_Caliphate'
p7886
asS'1565'
p7887
(lp7888
S'train'
p7889
aS'History'
p7890
aS'Caroline_affair'
p7891
asS'189809'
p7892
(lp7893
S'train'
p7894
aS'History'
p7895
aS'Poland'
p7896
asS'207873'
p7897
(lp7898
S'train'
p7899
aS'History'
p7900
aS'Oliver_Cromwell'
p7901
asS'189757'
p7902
(lp7903
S'train'
p7904
aS'History'
p7905
aS'Portugal'
p7906
asS'189751'
p7907
(lp7908
S'train'
p7909
aS'History'
p7910
aS'Night_of_the_Long_Knives'
p7911
asS'107243'
p7912
(lp7913
S'train'
p7914
aS'History'
p7915
aS'Battle_of_Hastings'
p7916
asS'193223'
p7917
(lp7918
S'train'
p7919
aS'History'
p7920
aS'John_Locke'
p7921
asS'116399'
p7922
(lp7923
S'train'
p7924
aS'History'
p7925
aS'Cao_Cao'
p7926
asS'111681'
p7927
(lp7928
S'train'
p7929
aS'History'
p7930
aS'Peisistratos'
p7931
asS'201617'
p7932
(lp7933
S'train'
p7934
aS'History:Europe'
p7935
aS'Giuseppe_Garibaldi'
p7936
asS'107245'
p7937
(lp7938
S'train'
p7939
aS'History'
p7940
aS'Congress_of_Vienna'
p7941
asS'109615'
p7942
(lp7943
S'train'
p7944
aS'History'
p7945
aS'Cuba'
p7946
asS'4399'
p7947
(lp7948
S'train'
p7949
aS'History'
p7950
aS'Verdun'
p7951
asS'3385'
p7952
(lp7953
S'train'
p7954
aS'History'
p7955
aS'The_Communist_Manifesto'
p7956
asS'119057'
p7957
(lp7958
S'train'
p7959
aS'History'
p7960
aS'Council_of_Chalcedon'
p7961
asS'123029'
p7962
(lp7963
S'train'
p7964
aS'History'
p7965
aS'War_of_the_Spanish_Succession'
p7966
asS'118585'
p7967
(lp7968
S'train'
p7969
aS'History'
p7970
aS'Pope_Julius_II'
p7971
asS'3191'
p7972
(lp7973
S'train'
p7974
aS'History'
p7975
aS'Alfred_the_Great'
p7976
asS'110625'
p7977
(lp7978
S'train'
p7979
aS'History'
p7980
aS'Salvador_Allende'
p7981
asS'110621'
p7982
(lp7983
S'train'
p7984
aS'History'
p7985
aS'Hittites'
p7986
asS'208959'
p7987
(lp7988
S'train'
p7989
aS'History'
p7990
aS'Japan'
p7991
as.