(lp1
S'1'
aS'1'
aS'1'
aS'1'
aS'1'
aS'1'
aS'1'
aS'2'
aS'2'
aS'2'
aS'2'
aS'2'
aS'2'
aS'2'
aS'3'
aS'3'
aS'3'
aS'3'
aS'3'
aS'3'
aS'3'
aS'4'
aS'4'
aS'4'
aS'4'
aS'4'
aS'4'
aS'4'
aS'5'
aS'5'
aS'5'
aS'5'
aS'5'
aS'5'
aS'5'
aS'6'
aS'6'
aS'6'
aS'6'
aS'6'
aS'6'
aS'6'
aS'7'
aS'7'
aS'7'
aS'7'
aS'7'
aS'7'
aS'7'
aS'8'
aS'8'
aS'8'
aS'8'
aS'8'
aS'8'
aS'8'
aS'9'
aS'9'
aS'9'
aS'9'
aS'9'
aS'9'
aS'9'
aS'10'
p2
ag2
ag2
ag2
ag2
ag2
ag2
aS'12'
p3
ag3
ag3
ag3
ag3
ag3
ag3
aS'13'
p4
ag4
ag4
ag4
ag4
ag4
ag4
aS'16'
p5
ag5
ag5
ag5
ag5
ag5
ag5
aS'17'
p6
ag6
ag6
ag6
ag6
ag6
ag6
aS'19'
p7
ag7
ag7
ag7
ag7
ag7
ag7
aS'20'
p8
ag8
ag8
ag8
ag8
ag8
ag8
aS'21'
p9
ag9
ag9
ag9
ag9
ag9
ag9
aS'22'
p10
ag10
ag10
ag10
ag10
ag10
ag10
aS'23'
p11
ag11
ag11
ag11
ag11
ag11
ag11
aS'24'
p12
ag12
ag12
ag12
ag12
ag12
ag12
aS'25'
p13
ag13
ag13
ag13
ag13
ag13
ag13
aS'28'
p14
ag14
ag14
ag14
ag14
ag14
ag14
aS'30'
p15
ag15
ag15
ag15
ag15
ag15
ag15
aS'31'
p16
ag16
ag16
ag16
ag16
ag16
ag16
aS'32'
p17
ag17
ag17
ag17
ag17
ag17
ag17
aS'35'
p18
ag18
ag18
ag18
ag18
ag18
ag18
aS'36'
p19
ag19
ag19
ag19
ag19
ag19
ag19
aS'37'
p20
ag20
ag20
ag20
ag20
ag20
ag20
aS'38'
p21
ag21
ag21
ag21
ag21
ag21
ag21
aS'39'
p22
ag22
ag22
ag22
ag22
ag22
ag22
aS'42'
p23
ag23
ag23
ag23
ag23
ag23
ag23
aS'43'
p24
ag24
ag24
ag24
ag24
ag24
ag24
aS'44'
p25
ag25
ag25
ag25
ag25
ag25
ag25
aS'45'
p26
ag26
ag26
ag26
ag26
ag26
ag26
aS'47'
p27
ag27
ag27
ag27
ag27
ag27
ag27
aS'48'
p28
ag28
ag28
ag28
ag28
ag28
ag28
aS'50'
p29
ag29
ag29
ag29
ag29
ag29
ag29
aS'51'
p30
ag30
ag30
ag30
ag30
ag30
ag30
aS'52'
p31
ag31
ag31
ag31
ag31
ag31
ag31
aS'54'
p32
ag32
ag32
ag32
ag32
ag32
ag32
aS'56'
p33
ag33
ag33
ag33
ag33
ag33
ag33
aS'57'
p34
ag34
ag34
ag34
ag34
ag34
ag34
aS'59'
p35
ag35
ag35
ag35
ag35
ag35
ag35
aS'60'
p36
ag36
ag36
ag36
ag36
ag36
ag36
aS'61'
p37
ag37
ag37
ag37
ag37
ag37
ag37
aS'62'
p38
ag38
ag38
ag38
ag38
ag38
ag38
aS'63'
p39
ag39
ag39
ag39
ag39
ag39
ag39
aS'65'
p40
ag40
ag40
ag40
ag40
ag40
ag40
aS'67'
p41
ag41
ag41
ag41
ag41
ag41
ag41
aS'71'
p42
ag42
ag42
ag42
ag42
ag42
ag42
aS'72'
p43
ag43
ag43
ag43
ag43
ag43
ag43
aS'73'
p44
ag44
ag44
ag44
ag44
ag44
ag44
aS'74'
p45
ag45
ag45
ag45
ag45
ag45
ag45
aS'75'
p46
ag46
ag46
ag46
ag46
ag46
ag46
aS'77'
p47
ag47
ag47
ag47
ag47
ag47
ag47
aS'78'
p48
ag48
ag48
ag48
ag48
ag48
ag48
aS'79'
p49
ag49
ag49
ag49
ag49
ag49
ag49
aS'80'
p50
ag50
ag50
ag50
ag50
ag50
ag50
aS'82'
p51
ag51
ag51
ag51
ag51
ag51
ag51
aS'83'
p52
ag52
ag52
ag52
ag52
ag52
ag52
aS'84'
p53
ag53
ag53
ag53
ag53
ag53
ag53
aS'85'
p54
ag54
ag54
ag54
ag54
ag54
ag54
aS'87'
p55
ag55
ag55
ag55
ag55
ag55
ag55
aS'89'
p56
ag56
ag56
ag56
ag56
ag56
ag56
aS'90'
p57
ag57
ag57
ag57
ag57
ag57
ag57
aS'92'
p58
ag58
ag58
ag58
ag58
ag58
ag58
aS'94'
p59
ag59
ag59
ag59
ag59
ag59
ag59
aS'95'
p60
ag60
ag60
ag60
ag60
ag60
ag60
aS'97'
p61
ag61
ag61
ag61
ag61
ag61
ag61
aS'101'
p62
ag62
ag62
ag62
ag62
ag62
ag62
aS'102'
p63
ag63
ag63
ag63
ag63
ag63
ag63
aS'103'
p64
ag64
ag64
ag64
ag64
ag64
ag64
aS'104'
p65
ag65
ag65
ag65
ag65
ag65
ag65
aS'105'
p66
ag66
ag66
ag66
ag66
ag66
ag66
aS'106'
p67
ag67
ag67
ag67
ag67
ag67
ag67
aS'109'
p68
ag68
ag68
ag68
ag68
ag68
ag68
aS'110'
p69
ag69
ag69
ag69
ag69
ag69
ag69
aS'111'
p70
ag70
ag70
ag70
ag70
ag70
ag70
aS'112'
p71
ag71
ag71
ag71
ag71
ag71
ag71
aS'113'
p72
ag72
ag72
ag72
ag72
ag72
ag72
aS'114'
p73
ag73
ag73
ag73
ag73
ag73
ag73
aS'116'
p74
ag74
ag74
ag74
ag74
ag74
ag74
aS'117'
p75
ag75
ag75
ag75
ag75
ag75
ag75
aS'118'
p76
ag76
ag76
ag76
ag76
ag76
ag76
aS'119'
p77
ag77
ag77
ag77
ag77
ag77
ag77
aS'121'
p78
ag78
ag78
ag78
ag78
ag78
ag78
aS'122'
p79
ag79
ag79
ag79
ag79
ag79
ag79
aS'124'
p80
ag80
ag80
ag80
ag80
ag80
ag80
aS'125'
p81
ag81
ag81
ag81
ag81
ag81
ag81
aS'127'
p82
ag82
ag82
ag82
ag82
ag82
ag82
aS'130'
p83
ag83
ag83
ag83
ag83
ag83
ag83
aS'131'
p84
ag84
ag84
ag84
ag84
ag84
ag84
aS'132'
p85
ag85
ag85
ag85
ag85
ag85
ag85
aS'133'
p86
ag86
ag86
ag86
ag86
ag86
ag86
aS'134'
p87
ag87
ag87
ag87
ag87
ag87
ag87
aS'137'
p88
ag88
ag88
ag88
ag88
ag88
ag88
aS'138'
p89
ag89
ag89
ag89
ag89
ag89
ag89
aS'139'
p90
ag90
ag90
ag90
ag90
ag90
ag90
aS'140'
p91
ag91
ag91
ag91
ag91
ag91
ag91
aS'141'
p92
ag92
ag92
ag92
ag92
ag92
ag92
aS'142'
p93
ag93
ag93
ag93
ag93
ag93
ag93
aS'143'
p94
ag94
ag94
ag94
ag94
ag94
ag94
aS'144'
p95
ag95
ag95
ag95
ag95
ag95
ag95
aS'145'
p96
ag96
ag96
ag96
ag96
ag96
ag96
aS'146'
p97
ag97
ag97
ag97
ag97
ag97
ag97
aS'147'
p98
ag98
ag98
ag98
ag98
ag98
ag98
aS'148'
p99
ag99
ag99
ag99
ag99
ag99
ag99
aS'149'
p100
ag100
ag100
ag100
ag100
ag100
ag100
aS'151'
p101
ag101
ag101
ag101
ag101
ag101
ag101
aS'153'
p102
ag102
ag102
ag102
ag102
ag102
ag102
aS'156'
p103
ag103
ag103
ag103
ag103
ag103
ag103
aS'157'
p104
ag104
ag104
ag104
ag104
ag104
ag104
aS'158'
p105
ag105
ag105
ag105
ag105
ag105
ag105
aS'161'
p106
ag106
ag106
ag106
ag106
ag106
ag106
aS'162'
p107
ag107
ag107
ag107
ag107
ag107
ag107
aS'164'
p108
ag108
ag108
ag108
ag108
ag108
ag108
aS'166'
p109
ag109
ag109
ag109
ag109
ag109
ag109
aS'167'
p110
ag110
ag110
ag110
ag110
ag110
ag110
aS'169'
p111
ag111
ag111
ag111
ag111
ag111
ag111
aS'170'
p112
ag112
ag112
ag112
ag112
ag112
ag112
aS'171'
p113
ag113
ag113
ag113
ag113
ag113
ag113
aS'172'
p114
ag114
ag114
ag114
ag114
ag114
ag114
aS'173'
p115
ag115
ag115
ag115
ag115
ag115
ag115
aS'175'
p116
ag116
ag116
ag116
ag116
ag116
ag116
aS'176'
p117
ag117
ag117
ag117
ag117
ag117
ag117
aS'178'
p118
ag118
ag118
ag118
ag118
ag118
ag118
aS'180'
p119
ag119
ag119
ag119
ag119
ag119
ag119
aS'181'
p120
ag120
ag120
ag120
ag120
ag120
ag120
aS'183'
p121
ag121
ag121
ag121
ag121
ag121
ag121
aS'185'
p122
ag122
ag122
ag122
ag122
ag122
ag122
aS'187'
p123
ag123
ag123
ag123
ag123
ag123
ag123
aS'188'
p124
ag124
ag124
ag124
ag124
ag124
ag124
aS'190'
p125
ag125
ag125
ag125
ag125
ag125
ag125
aS'191'
p126
ag126
ag126
ag126
ag126
ag126
ag126
aS'193'
p127
ag127
ag127
ag127
ag127
ag127
ag127
aS'194'
p128
ag128
ag128
ag128
ag128
ag128
ag128
aS'195'
p129
ag129
ag129
ag129
ag129
ag129
ag129
aS'196'
p130
ag130
ag130
ag130
ag130
ag130
ag130
aS'197'
p131
ag131
ag131
ag131
ag131
ag131
ag131
aS'198'
p132
ag132
ag132
ag132
ag132
ag132
ag132
aS'200'
p133
ag133
ag133
ag133
ag133
ag133
ag133
aS'202'
p134
ag134
ag134
ag134
ag134
ag134
ag134
aS'204'
p135
ag135
ag135
ag135
ag135
ag135
ag135
aS'208'
p136
ag136
ag136
ag136
ag136
ag136
ag136
aS'210'
p137
ag137
ag137
ag137
ag137
ag137
ag137
aS'211'
p138
ag138
ag138
ag138
ag138
ag138
ag138
aS'212'
p139
ag139
ag139
ag139
ag139
ag139
ag139
aS'213'
p140
ag140
ag140
ag140
ag140
ag140
ag140
aS'217'
p141
ag141
ag141
ag141
ag141
ag141
ag141
aS'218'
p142
ag142
ag142
ag142
ag142
ag142
ag142
aS'219'
p143
ag143
ag143
ag143
ag143
ag143
ag143
aS'221'
p144
ag144
ag144
ag144
ag144
ag144
ag144
aS'223'
p145
ag145
ag145
ag145
ag145
ag145
ag145
aS'224'
p146
ag146
ag146
ag146
ag146
ag146
ag146
aS'225'
p147
ag147
ag147
ag147
ag147
ag147
ag147
aS'226'
p148
ag148
ag148
ag148
ag148
ag148
ag148
aS'227'
p149
ag149
ag149
ag149
ag149
ag149
ag149
aS'232'
p150
ag150
ag150
ag150
ag150
ag150
ag150
aS'233'
p151
ag151
ag151
ag151
ag151
ag151
ag151
aS'234'
p152
ag152
ag152
ag152
ag152
ag152
ag152
aS'235'
p153
ag153
ag153
ag153
ag153
ag153
ag153
aS'236'
p154
ag154
ag154
ag154
ag154
ag154
ag154
aS'237'
p155
ag155
ag155
ag155
ag155
ag155
ag155
aS'239'
p156
ag156
ag156
ag156
ag156
ag156
ag156
aS'240'
p157
ag157
ag157
ag157
ag157
ag157
ag157
aS'241'
p158
ag158
ag158
ag158
ag158
ag158
ag158
aS'242'
p159
ag159
ag159
ag159
ag159
ag159
ag159
aS'243'
p160
ag160
ag160
ag160
ag160
ag160
ag160
aS'244'
p161
ag161
ag161
ag161
ag161
ag161
ag161
aS'245'
p162
ag162
ag162
ag162
ag162
ag162
ag162
aS'246'
p163
ag163
ag163
ag163
ag163
ag163
ag163
aS'247'
p164
ag164
ag164
ag164
ag164
ag164
ag164
aS'248'
p165
ag165
ag165
ag165
ag165
ag165
ag165
aS'250'
p166
ag166
ag166
ag166
ag166
ag166
ag166
aS'251'
p167
ag167
ag167
ag167
ag167
ag167
ag167
aS'252'
p168
ag168
ag168
ag168
ag168
ag168
ag168
aS'255'
p169
ag169
ag169
ag169
ag169
ag169
ag169
aS'256'
p170
ag170
ag170
ag170
ag170
ag170
ag170
aS'257'
p171
ag171
ag171
ag171
ag171
ag171
ag171
aS'261'
p172
ag172
ag172
ag172
ag172
ag172
ag172
aS'262'
p173
ag173
ag173
ag173
ag173
ag173
ag173
aS'265'
p174
ag174
ag174
ag174
ag174
ag174
ag174
aS'266'
p175
ag175
ag175
ag175
ag175
ag175
ag175
aS'267'
p176
ag176
ag176
ag176
ag176
ag176
ag176
aS'268'
p177
ag177
ag177
ag177
ag177
ag177
ag177
aS'269'
p178
ag178
ag178
ag178
ag178
ag178
ag178
aS'272'
p179
ag179
ag179
ag179
ag179
ag179
ag179
aS'273'
p180
ag180
ag180
ag180
ag180
ag180
ag180
aS'274'
p181
ag181
ag181
ag181
ag181
ag181
ag181
aS'275'
p182
ag182
ag182
ag182
ag182
ag182
ag182
aS'276'
p183
ag183
ag183
ag183
ag183
ag183
ag183
aS'279'
p184
ag184
ag184
ag184
ag184
ag184
ag184
aS'280'
p185
ag185
ag185
ag185
ag185
ag185
ag185
aS'281'
p186
ag186
ag186
ag186
ag186
ag186
ag186
aS'282'
p187
ag187
ag187
ag187
ag187
ag187
ag187
aS'283'
p188
ag188
ag188
ag188
ag188
ag188
ag188
aS'285'
p189
ag189
ag189
ag189
ag189
ag189
ag189
aS'287'
p190
ag190
ag190
ag190
ag190
ag190
ag190
aS'288'
p191
ag191
ag191
ag191
ag191
ag191
ag191
aS'289'
p192
ag192
ag192
ag192
ag192
ag192
ag192
aS'290'
p193
ag193
ag193
ag193
ag193
ag193
ag193
aS'291'
p194
ag194
ag194
ag194
ag194
ag194
ag194
aS'293'
p195
ag195
ag195
ag195
ag195
ag195
ag195
aS'295'
p196
ag196
ag196
ag196
ag196
ag196
ag196
aS'296'
p197
ag197
ag197
ag197
ag197
ag197
ag197
aS'297'
p198
ag198
ag198
ag198
ag198
ag198
ag198
aS'298'
p199
ag199
ag199
ag199
ag199
ag199
ag199
aS'299'
p200
ag200
ag200
ag200
ag200
ag200
ag200
aS'301'
p201
ag201
ag201
ag201
ag201
ag201
ag201
aS'302'
p202
ag202
ag202
ag202
ag202
ag202
ag202
aS'303'
p203
ag203
ag203
ag203
ag203
ag203
ag203
aS'304'
p204
ag204
ag204
ag204
ag204
ag204
ag204
aS'305'
p205
ag205
ag205
ag205
ag205
ag205
ag205
aS'306'
p206
ag206
ag206
ag206
ag206
ag206
ag206
aS'307'
p207
ag207
ag207
ag207
ag207
ag207
ag207
aS'308'
p208
ag208
ag208
ag208
ag208
ag208
ag208
aS'309'
p209
ag209
ag209
ag209
ag209
ag209
ag209
aS'310'
p210
ag210
ag210
ag210
ag210
ag210
ag210
aS'311'
p211
ag211
ag211
ag211
ag211
ag211
ag211
aS'312'
p212
ag212
ag212
ag212
ag212
ag212
ag212
aS'315'
p213
ag213
ag213
ag213
ag213
ag213
ag213
aS'316'
p214
ag214
ag214
ag214
ag214
ag214
ag214
aS'317'
p215
ag215
ag215
ag215
ag215
ag215
ag215
aS'318'
p216
ag216
ag216
ag216
ag216
ag216
ag216
aS'319'
p217
ag217
ag217
ag217
ag217
ag217
ag217
aS'321'
p218
ag218
ag218
ag218
ag218
ag218
ag218
aS'324'
p219
ag219
ag219
ag219
ag219
ag219
ag219
aS'326'
p220
ag220
ag220
ag220
ag220
ag220
ag220
aS'327'
p221
ag221
ag221
ag221
ag221
ag221
ag221
aS'328'
p222
ag222
ag222
ag222
ag222
ag222
ag222
aS'329'
p223
ag223
ag223
ag223
ag223
ag223
ag223
aS'331'
p224
ag224
ag224
ag224
ag224
ag224
ag224
aS'332'
p225
ag225
ag225
ag225
ag225
ag225
ag225
aS'335'
p226
ag226
ag226
ag226
ag226
ag226
ag226
aS'337'
p227
ag227
ag227
ag227
ag227
ag227
ag227
aS'338'
p228
ag228
ag228
ag228
ag228
ag228
ag228
aS'341'
p229
ag229
ag229
ag229
ag229
ag229
ag229
aS'342'
p230
ag230
ag230
ag230
ag230
ag230
ag230
aS'346'
p231
ag231
ag231
ag231
ag231
ag231
ag231
aS'347'
p232
ag232
ag232
ag232
ag232
ag232
ag232
aS'348'
p233
ag233
ag233
ag233
ag233
ag233
ag233
aS'349'
p234
ag234
ag234
ag234
ag234
ag234
ag234
aS'351'
p235
ag235
ag235
ag235
ag235
ag235
ag235
aS'352'
p236
ag236
ag236
ag236
ag236
ag236
ag236
aS'353'
p237
ag237
ag237
ag237
ag237
ag237
ag237
aS'355'
p238
ag238
ag238
ag238
ag238
ag238
ag238
aS'356'
p239
ag239
ag239
ag239
ag239
ag239
ag239
aS'357'
p240
ag240
ag240
ag240
ag240
ag240
ag240
aS'359'
p241
ag241
ag241
ag241
ag241
ag241
ag241
aS'360'
p242
ag242
ag242
ag242
ag242
ag242
ag242
aS'362'
p243
ag243
ag243
ag243
ag243
ag243
ag243
aS'363'
p244
ag244
ag244
ag244
ag244
ag244
ag244
aS'364'
p245
ag245
ag245
ag245
ag245
ag245
ag245
aS'365'
p246
ag246
ag246
ag246
ag246
ag246
ag246
aS'366'
p247
ag247
ag247
ag247
ag247
ag247
ag247
aS'367'
p248
ag248
ag248
ag248
ag248
ag248
ag248
aS'368'
p249
ag249
ag249
ag249
ag249
ag249
ag249
aS'369'
p250
ag250
ag250
ag250
ag250
ag250
ag250
aS'373'
p251
ag251
ag251
ag251
ag251
ag251
ag251
aS'374'
p252
ag252
ag252
ag252
ag252
ag252
ag252
aS'375'
p253
ag253
ag253
ag253
ag253
ag253
ag253
aS'376'
p254
ag254
ag254
ag254
ag254
ag254
ag254
aS'378'
p255
ag255
ag255
ag255
ag255
ag255
ag255
aS'380'
p256
ag256
ag256
ag256
ag256
ag256
ag256
aS'381'
p257
ag257
ag257
ag257
ag257
ag257
ag257
aS'382'
p258
ag258
ag258
ag258
ag258
ag258
ag258
aS'383'
p259
ag259
ag259
ag259
ag259
ag259
ag259
aS'384'
p260
ag260
ag260
ag260
ag260
ag260
ag260
aS'386'
p261
ag261
ag261
ag261
ag261
ag261
ag261
aS'387'
p262
ag262
ag262
ag262
ag262
ag262
ag262
aS'388'
p263
ag263
ag263
ag263
ag263
ag263
ag263
aS'389'
p264
ag264
ag264
ag264
ag264
ag264
ag264
aS'391'
p265
ag265
ag265
ag265
ag265
ag265
ag265
aS'393'
p266
ag266
ag266
ag266
ag266
ag266
ag266
aS'394'
p267
ag267
ag267
ag267
ag267
ag267
ag267
aS'395'
p268
ag268
ag268
ag268
ag268
ag268
ag268
aS'397'
p269
ag269
ag269
ag269
ag269
ag269
ag269
aS'398'
p270
ag270
ag270
ag270
ag270
ag270
ag270
aS'399'
p271
ag271
ag271
ag271
ag271
ag271
ag271
aS'400'
p272
ag272
ag272
ag272
ag272
ag272
ag272
aS'403'
p273
ag273
ag273
ag273
ag273
ag273
ag273
aS'404'
p274
ag274
ag274
ag274
ag274
ag274
ag274
aS'405'
p275
ag275
ag275
ag275
ag275
ag275
ag275
aS'406'
p276
ag276
ag276
ag276
ag276
ag276
ag276
aS'407'
p277
ag277
ag277
ag277
ag277
ag277
ag277
aS'408'
p278
ag278
ag278
ag278
ag278
ag278
ag278
aS'409'
p279
ag279
ag279
ag279
ag279
ag279
ag279
aS'410'
p280
ag280
ag280
ag280
ag280
ag280
ag280
aS'412'
p281
ag281
ag281
ag281
ag281
ag281
ag281
aS'413'
p282
ag282
ag282
ag282
ag282
ag282
ag282
aS'414'
p283
ag283
ag283
ag283
ag283
ag283
ag283
aS'415'
p284
ag284
ag284
ag284
ag284
ag284
ag284
aS'416'
p285
ag285
ag285
ag285
ag285
ag285
ag285
aS'418'
p286
ag286
ag286
ag286
ag286
ag286
ag286
aS'420'
p287
ag287
ag287
ag287
ag287
ag287
ag287
aS'421'
p288
ag288
ag288
ag288
ag288
ag288
ag288
aS'422'
p289
ag289
ag289
ag289
ag289
ag289
ag289
aS'424'
p290
ag290
ag290
ag290
ag290
ag290
ag290
aS'426'
p291
ag291
ag291
ag291
ag291
ag291
ag291
aS'427'
p292
ag292
ag292
ag292
ag292
ag292
ag292
aS'428'
p293
ag293
ag293
ag293
ag293
ag293
ag293
aS'429'
p294
ag294
ag294
ag294
ag294
ag294
ag294
aS'430'
p295
ag295
ag295
ag295
ag295
ag295
ag295
aS'431'
p296
ag296
ag296
ag296
ag296
ag296
ag296
aS'436'
p297
ag297
ag297
ag297
ag297
ag297
ag297
aS'437'
p298
ag298
ag298
ag298
ag298
ag298
ag298
aS'438'
p299
ag299
ag299
ag299
ag299
ag299
ag299
aS'440'
p300
ag300
ag300
ag300
ag300
ag300
ag300
aS'441'
p301
ag301
ag301
ag301
ag301
ag301
ag301
aS'442'
p302
ag302
ag302
ag302
ag302
ag302
ag302
aS'443'
p303
ag303
ag303
ag303
ag303
ag303
ag303
aS'444'
p304
ag304
ag304
ag304
ag304
ag304
ag304
aS'445'
p305
ag305
ag305
ag305
ag305
ag305
ag305
aS'446'
p306
ag306
ag306
ag306
ag306
ag306
ag306
aS'447'
p307
ag307
ag307
ag307
ag307
ag307
ag307
aS'448'
p308
ag308
ag308
ag308
ag308
ag308
ag308
aS'449'
p309
ag309
ag309
ag309
ag309
ag309
ag309
aS'454'
p310
ag310
ag310
ag310
ag310
ag310
ag310
aS'458'
p311
ag311
ag311
ag311
ag311
ag311
ag311
aS'459'
p312
ag312
ag312
ag312
ag312
ag312
ag312
aS'460'
p313
ag313
ag313
ag313
ag313
ag313
ag313
aS'461'
p314
ag314
ag314
ag314
ag314
ag314
ag314
aS'464'
p315
ag315
ag315
ag315
ag315
ag315
ag315
aS'466'
p316
ag316
ag316
ag316
ag316
ag316
ag316
aS'468'
p317
ag317
ag317
ag317
ag317
ag317
ag317
aS'469'
p318
ag318
ag318
ag318
ag318
ag318
ag318
aS'470'
p319
ag319
ag319
ag319
ag319
ag319
ag319
aS'471'
p320
ag320
ag320
ag320
ag320
ag320
ag320
aS'474'
p321
ag321
ag321
ag321
ag321
ag321
ag321
aS'475'
p322
ag322
ag322
ag322
ag322
ag322
ag322
aS'477'
p323
ag323
ag323
ag323
ag323
ag323
ag323
aS'478'
p324
ag324
ag324
ag324
ag324
ag324
ag324
aS'479'
p325
ag325
ag325
ag325
ag325
ag325
ag325
aS'481'
p326
ag326
ag326
ag326
ag326
ag326
ag326
aS'482'
p327
ag327
ag327
ag327
ag327
ag327
ag327
aS'483'
p328
ag328
ag328
ag328
ag328
ag328
ag328
aS'484'
p329
ag329
ag329
ag329
ag329
ag329
ag329
aS'485'
p330
ag330
ag330
ag330
ag330
ag330
ag330
aS'486'
p331
ag331
ag331
ag331
ag331
ag331
ag331
aS'487'
p332
ag332
ag332
ag332
ag332
ag332
ag332
aS'489'
p333
ag333
ag333
ag333
ag333
ag333
ag333
aS'490'
p334
ag334
ag334
ag334
ag334
ag334
ag334
aS'491'
p335
ag335
ag335
ag335
ag335
ag335
ag335
aS'492'
p336
ag336
ag336
ag336
ag336
ag336
ag336
aS'493'
p337
ag337
ag337
ag337
ag337
ag337
ag337
aS'494'
p338
ag338
ag338
ag338
ag338
ag338
ag338
aS'495'
p339
ag339
ag339
ag339
ag339
ag339
ag339
aS'497'
p340
ag340
ag340
ag340
ag340
ag340
ag340
aS'498'
p341
ag341
ag341
ag341
ag341
ag341
ag341
aS'499'
p342
ag342
ag342
ag342
ag342
ag342
ag342
aS'500'
p343
ag343
ag343
ag343
ag343
ag343
ag343
aS'501'
p344
ag344
ag344
ag344
ag344
ag344
ag344
aS'503'
p345
ag345
ag345
ag345
ag345
ag345
ag345
aS'504'
p346
ag346
ag346
ag346
ag346
ag346
ag346
aS'505'
p347
ag347
ag347
ag347
ag347
ag347
ag347
aS'506'
p348
ag348
ag348
ag348
ag348
ag348
ag348
aS'512'
p349
ag349
ag349
ag349
ag349
ag349
ag349
aS'513'
p350
ag350
ag350
ag350
ag350
ag350
ag350
aS'516'
p351
ag351
ag351
ag351
ag351
ag351
ag351
aS'517'
p352
ag352
ag352
ag352
ag352
ag352
ag352
aS'518'
p353
ag353
ag353
ag353
ag353
ag353
ag353
aS'519'
p354
ag354
ag354
ag354
ag354
ag354
ag354
aS'520'
p355
ag355
ag355
ag355
ag355
ag355
ag355
aS'521'
p356
ag356
ag356
ag356
ag356
ag356
ag356
aS'522'
p357
ag357
ag357
ag357
ag357
ag357
ag357
aS'523'
p358
ag358
ag358
ag358
ag358
ag358
ag358
aS'524'
p359
ag359
ag359
ag359
ag359
ag359
ag359
aS'525'
p360
ag360
ag360
ag360
ag360
ag360
ag360
aS'526'
p361
ag361
ag361
ag361
ag361
ag361
ag361
aS'527'
p362
ag362
ag362
ag362
ag362
ag362
ag362
aS'531'
p363
ag363
ag363
ag363
ag363
ag363
ag363
aS'532'
p364
ag364
ag364
ag364
ag364
ag364
ag364
aS'533'
p365
ag365
ag365
ag365
ag365
ag365
ag365
aS'534'
p366
ag366
ag366
ag366
ag366
ag366
ag366
aS'536'
p367
ag367
ag367
ag367
ag367
ag367
ag367
aS'539'
p368
ag368
ag368
ag368
ag368
ag368
ag368
aS'540'
p369
ag369
ag369
ag369
ag369
ag369
ag369
aS'541'
p370
ag370
ag370
ag370
ag370
ag370
ag370
aS'543'
p371
ag371
ag371
ag371
ag371
ag371
ag371
aS'544'
p372
ag372
ag372
ag372
ag372
ag372
ag372
aS'547'
p373
ag373
ag373
ag373
ag373
ag373
ag373
aS'549'
p374
ag374
ag374
ag374
ag374
ag374
ag374
aS'552'
p375
ag375
ag375
ag375
ag375
ag375
ag375
aS'553'
p376
ag376
ag376
ag376
ag376
ag376
ag376
aS'555'
p377
ag377
ag377
ag377
ag377
ag377
ag377
aS'556'
p378
ag378
ag378
ag378
ag378
ag378
ag378
aS'557'
p379
ag379
ag379
ag379
ag379
ag379
ag379
aS'560'
p380
ag380
ag380
ag380
ag380
ag380
ag380
aS'561'
p381
ag381
ag381
ag381
ag381
ag381
ag381
aS'563'
p382
ag382
ag382
ag382
ag382
ag382
ag382
aS'565'
p383
ag383
ag383
ag383
ag383
ag383
ag383
aS'566'
p384
ag384
ag384
ag384
ag384
ag384
ag384
aS'567'
p385
ag385
ag385
ag385
ag385
ag385
ag385
aS'568'
p386
ag386
ag386
ag386
ag386
ag386
ag386
aS'570'
p387
ag387
ag387
ag387
ag387
ag387
ag387
aS'572'
p388
ag388
ag388
ag388
ag388
ag388
ag388
aS'573'
p389
ag389
ag389
ag389
ag389
ag389
ag389
aS'576'
p390
ag390
ag390
ag390
ag390
ag390
ag390
aS'577'
p391
ag391
ag391
ag391
ag391
ag391
ag391
aS'581'
p392
ag392
ag392
ag392
ag392
ag392
ag392
aS'583'
p393
ag393
ag393
ag393
ag393
ag393
ag393
aS'584'
p394
ag394
ag394
ag394
ag394
ag394
ag394
aS'586'
p395
ag395
ag395
ag395
ag395
ag395
ag395
aS'587'
p396
ag396
ag396
ag396
ag396
ag396
ag396
aS'588'
p397
ag397
ag397
ag397
ag397
ag397
ag397
aS'591'
p398
ag398
ag398
ag398
ag398
ag398
ag398
aS'592'
p399
ag399
ag399
ag399
ag399
ag399
ag399
aS'593'
p400
ag400
ag400
ag400
ag400
ag400
ag400
aS'595'
p401
ag401
ag401
ag401
ag401
ag401
ag401
aS'596'
p402
ag402
ag402
ag402
ag402
ag402
ag402
aS'598'
p403
ag403
ag403
ag403
ag403
ag403
ag403
aS'599'
p404
ag404
ag404
ag404
ag404
ag404
ag404
aS'600'
p405
ag405
ag405
ag405
ag405
ag405
ag405
aS'601'
p406
ag406
ag406
ag406
ag406
ag406
ag406
aS'602'
p407
ag407
ag407
ag407
ag407
ag407
ag407
aS'603'
p408
ag408
ag408
ag408
ag408
ag408
ag408
aS'604'
p409
ag409
ag409
ag409
ag409
ag409
ag409
aS'605'
p410
ag410
ag410
ag410
ag410
ag410
ag410
aS'606'
p411
ag411
ag411
ag411
ag411
ag411
ag411
aS'608'
p412
ag412
ag412
ag412
ag412
ag412
ag412
aS'609'
p413
ag413
ag413
ag413
ag413
ag413
ag413
aS'610'
p414
ag414
ag414
ag414
ag414
ag414
ag414
aS'611'
p415
ag415
ag415
ag415
ag415
ag415
ag415
aS'612'
p416
ag416
ag416
ag416
ag416
ag416
ag416
aS'615'
p417
ag417
ag417
ag417
ag417
ag417
ag417
aS'616'
p418
ag418
ag418
ag418
ag418
ag418
ag418
aS'617'
p419
ag419
ag419
ag419
ag419
ag419
ag419
aS'618'
p420
ag420
ag420
ag420
ag420
ag420
ag420
aS'620'
p421
ag421
ag421
ag421
ag421
ag421
ag421
aS'621'
p422
ag422
ag422
ag422
ag422
ag422
ag422
aS'622'
p423
ag423
ag423
ag423
ag423
ag423
ag423
aS'623'
p424
ag424
ag424
ag424
ag424
ag424
ag424
aS'624'
p425
ag425
ag425
ag425
ag425
ag425
ag425
aS'626'
p426
ag426
ag426
ag426
ag426
ag426
ag426
aS'627'
p427
ag427
ag427
ag427
ag427
ag427
ag427
aS'629'
p428
ag428
ag428
ag428
ag428
ag428
ag428
aS'632'
p429
ag429
ag429
ag429
ag429
ag429
ag429
aS'633'
p430
ag430
ag430
ag430
ag430
ag430
ag430
aS'634'
p431
ag431
ag431
ag431
ag431
ag431
ag431
aS'635'
p432
ag432
ag432
ag432
ag432
ag432
ag432
aS'636'
p433
ag433
ag433
ag433
ag433
ag433
ag433
aS'637'
p434
ag434
ag434
ag434
ag434
ag434
ag434
aS'638'
p435
ag435
ag435
ag435
ag435
ag435
ag435
aS'640'
p436
ag436
ag436
ag436
ag436
ag436
ag436
aS'641'
p437
ag437
ag437
ag437
ag437
ag437
ag437
aS'643'
p438
ag438
ag438
ag438
ag438
ag438
ag438
aS'645'
p439
ag439
ag439
ag439
ag439
ag439
ag439
aS'646'
p440
ag440
ag440
ag440
ag440
ag440
ag440
aS'648'
p441
ag441
ag441
ag441
ag441
ag441
ag441
aS'650'
p442
ag442
ag442
ag442
ag442
ag442
ag442
aS'651'
p443
ag443
ag443
ag443
ag443
ag443
ag443
aS'652'
p444
ag444
ag444
ag444
ag444
ag444
ag444
aS'653'
p445
ag445
ag445
ag445
ag445
ag445
ag445
aS'657'
p446
ag446
ag446
ag446
ag446
ag446
ag446
aS'658'
p447
ag447
ag447
ag447
ag447
ag447
ag447
aS'659'
p448
ag448
ag448
ag448
ag448
ag448
ag448
aS'662'
p449
ag449
ag449
ag449
ag449
ag449
ag449
aS'663'
p450
ag450
ag450
ag450
ag450
ag450
ag450
aS'664'
p451
ag451
ag451
ag451
ag451
ag451
ag451
aS'665'
p452
ag452
ag452
ag452
ag452
ag452
ag452
aS'666'
p453
ag453
ag453
ag453
ag453
ag453
ag453
aS'667'
p454
ag454
ag454
ag454
ag454
ag454
ag454
aS'668'
p455
ag455
ag455
ag455
ag455
ag455
ag455
aS'669'
p456
ag456
ag456
ag456
ag456
ag456
ag456
aS'670'
p457
ag457
ag457
ag457
ag457
ag457
ag457
aS'671'
p458
ag458
ag458
ag458
ag458
ag458
ag458
aS'672'
p459
ag459
ag459
ag459
ag459
ag459
ag459
aS'674'
p460
ag460
ag460
ag460
ag460
ag460
ag460
aS'675'
p461
ag461
ag461
ag461
ag461
ag461
ag461
aS'677'
p462
ag462
ag462
ag462
ag462
ag462
ag462
aS'679'
p463
ag463
ag463
ag463
ag463
ag463
ag463
aS'681'
p464
ag464
ag464
ag464
ag464
ag464
ag464
aS'682'
p465
ag465
ag465
ag465
ag465
ag465
ag465
aS'685'
p466
ag466
ag466
ag466
ag466
ag466
ag466
aS'687'
p467
ag467
ag467
ag467
ag467
ag467
ag467
aS'688'
p468
ag468
ag468
ag468
ag468
ag468
ag468
aS'692'
p469
ag469
ag469
ag469
ag469
ag469
ag469
aS'694'
p470
ag470
ag470
ag470
ag470
ag470
ag470
aS'695'
p471
ag471
ag471
ag471
ag471
ag471
ag471
aS'696'
p472
ag472
ag472
ag472
ag472
ag472
ag472
aS'697'
p473
ag473
ag473
ag473
ag473
ag473
ag473
aS'699'
p474
ag474
ag474
ag474
ag474
ag474
ag474
aS'700'
p475
ag475
ag475
ag475
ag475
ag475
ag475
aS'701'
p476
ag476
ag476
ag476
ag476
ag476
ag476
aS'702'
p477
ag477
ag477
ag477
ag477
ag477
ag477
aS'703'
p478
ag478
ag478
ag478
ag478
ag478
ag478
aS'704'
p479
ag479
ag479
ag479
ag479
ag479
ag479
aS'706'
p480
ag480
ag480
ag480
ag480
ag480
ag480
aS'707'
p481
ag481
ag481
ag481
ag481
ag481
ag481
aS'708'
p482
ag482
ag482
ag482
ag482
ag482
ag482
aS'710'
p483
ag483
ag483
ag483
ag483
ag483
ag483
aS'712'
p484
ag484
ag484
ag484
ag484
ag484
ag484
aS'713'
p485
ag485
ag485
ag485
ag485
ag485
ag485
aS'714'
p486
ag486
ag486
ag486
ag486
ag486
ag486
aS'716'
p487
ag487
ag487
ag487
ag487
ag487
ag487
aS'717'
p488
ag488
ag488
ag488
ag488
ag488
ag488
aS'718'
p489
ag489
ag489
ag489
ag489
ag489
ag489
aS'719'
p490
ag490
ag490
ag490
ag490
ag490
ag490
aS'720'
p491
ag491
ag491
ag491
ag491
ag491
ag491
aS'721'
p492
ag492
ag492
ag492
ag492
ag492
ag492
aS'725'
p493
ag493
ag493
ag493
ag493
ag493
ag493
aS'726'
p494
ag494
ag494
ag494
ag494
ag494
ag494
aS'728'
p495
ag495
ag495
ag495
ag495
ag495
ag495
aS'729'
p496
ag496
ag496
ag496
ag496
ag496
ag496
aS'730'
p497
ag497
ag497
ag497
ag497
ag497
ag497
aS'731'
p498
ag498
ag498
ag498
ag498
ag498
ag498
aS'733'
p499
ag499
ag499
ag499
ag499
ag499
ag499
aS'734'
p500
ag500
ag500
ag500
ag500
ag500
ag500
aS'735'
p501
ag501
ag501
ag501
ag501
ag501
ag501
aS'736'
p502
ag502
ag502
ag502
ag502
ag502
ag502
aS'739'
p503
ag503
ag503
ag503
ag503
ag503
ag503
aS'743'
p504
ag504
ag504
ag504
ag504
ag504
ag504
aS'744'
p505
ag505
ag505
ag505
ag505
ag505
ag505
aS'745'
p506
ag506
ag506
ag506
ag506
ag506
ag506
aS'746'
p507
ag507
ag507
ag507
ag507
ag507
ag507
aS'747'
p508
ag508
ag508
ag508
ag508
ag508
ag508
aS'748'
p509
ag509
ag509
ag509
ag509
ag509
ag509
aS'749'
p510
ag510
ag510
ag510
ag510
ag510
ag510
aS'751'
p511
ag511
ag511
ag511
ag511
ag511
ag511
aS'752'
p512
ag512
ag512
ag512
ag512
ag512
ag512
aS'753'
p513
ag513
ag513
ag513
ag513
ag513
ag513
aS'754'
p514
ag514
ag514
ag514
ag514
ag514
ag514
aS'755'
p515
ag515
ag515
ag515
ag515
ag515
ag515
aS'757'
p516
ag516
ag516
ag516
ag516
ag516
ag516
aS'759'
p517
ag517
ag517
ag517
ag517
ag517
ag517
aS'760'
p518
ag518
ag518
ag518
ag518
ag518
ag518
aS'761'
p519
ag519
ag519
ag519
ag519
ag519
ag519
aS'762'
p520
ag520
ag520
ag520
ag520
ag520
ag520
aS'764'
p521
ag521
ag521
ag521
ag521
ag521
ag521
aS'765'
p522
ag522
ag522
ag522
ag522
ag522
ag522
aS'766'
p523
ag523
ag523
ag523
ag523
ag523
ag523
aS'767'
p524
ag524
ag524
ag524
ag524
ag524
ag524
aS'771'
p525
ag525
ag525
ag525
ag525
ag525
ag525
aS'772'
p526
ag526
ag526
ag526
ag526
ag526
ag526
aS'773'
p527
ag527
ag527
ag527
ag527
ag527
ag527
aS'774'
p528
ag528
ag528
ag528
ag528
ag528
ag528
aS'776'
p529
ag529
ag529
ag529
ag529
ag529
ag529
aS'777'
p530
ag530
ag530
ag530
ag530
ag530
ag530
aS'778'
p531
ag531
ag531
ag531
ag531
ag531
ag531
aS'779'
p532
ag532
ag532
ag532
ag532
ag532
ag532
aS'780'
p533
ag533
ag533
ag533
ag533
ag533
ag533
aS'781'
p534
ag534
ag534
ag534
ag534
ag534
ag534
aS'782'
p535
ag535
ag535
ag535
ag535
ag535
ag535
aS'783'
p536
ag536
ag536
ag536
ag536
ag536
ag536
aS'784'
p537
ag537
ag537
ag537
ag537
ag537
ag537
aS'785'
p538
ag538
ag538
ag538
ag538
ag538
ag538
aS'787'
p539
ag539
ag539
ag539
ag539
ag539
ag539
aS'788'
p540
ag540
ag540
ag540
ag540
ag540
ag540
aS'793'
p541
ag541
ag541
ag541
ag541
ag541
ag541
aS'794'
p542
ag542
ag542
ag542
ag542
ag542
ag542
aS'796'
p543
ag543
ag543
ag543
ag543
ag543
ag543
aS'797'
p544
ag544
ag544
ag544
ag544
ag544
ag544
aS'798'
p545
ag545
ag545
ag545
ag545
ag545
ag545
aS'799'
p546
ag546
ag546
ag546
ag546
ag546
ag546
aS'802'
p547
ag547
ag547
ag547
ag547
ag547
ag547
aS'803'
p548
ag548
ag548
ag548
ag548
ag548
ag548
aS'804'
p549
ag549
ag549
ag549
ag549
ag549
ag549
aS'807'
p550
ag550
ag550
ag550
ag550
ag550
ag550
aS'808'
p551
ag551
ag551
ag551
ag551
ag551
ag551
aS'809'
p552
ag552
ag552
ag552
ag552
ag552
ag552
aS'810'
p553
ag553
ag553
ag553
ag553
ag553
ag553
aS'812'
p554
ag554
ag554
ag554
ag554
ag554
ag554
aS'813'
p555
ag555
ag555
ag555
ag555
ag555
ag555
aS'814'
p556
ag556
ag556
ag556
ag556
ag556
ag556
aS'816'
p557
ag557
ag557
ag557
ag557
ag557
ag557
aS'817'
p558
ag558
ag558
ag558
ag558
ag558
ag558
aS'818'
p559
ag559
ag559
ag559
ag559
ag559
ag559
aS'819'
p560
ag560
ag560
ag560
ag560
ag560
ag560
aS'820'
p561
ag561
ag561
ag561
ag561
ag561
ag561
aS'821'
p562
ag562
ag562
ag562
ag562
ag562
ag562
aS'822'
p563
ag563
ag563
ag563
ag563
ag563
ag563
aS'823'
p564
ag564
ag564
ag564
ag564
ag564
ag564
aS'824'
p565
ag565
ag565
ag565
ag565
ag565
ag565
aS'827'
p566
ag566
ag566
ag566
ag566
ag566
ag566
aS'828'
p567
ag567
ag567
ag567
ag567
ag567
ag567
aS'829'
p568
ag568
ag568
ag568
ag568
ag568
ag568
aS'830'
p569
ag569
ag569
ag569
ag569
ag569
ag569
aS'832'
p570
ag570
ag570
ag570
ag570
ag570
ag570
aS'835'
p571
ag571
ag571
ag571
ag571
ag571
ag571
aS'836'
p572
ag572
ag572
ag572
ag572
ag572
ag572
aS'841'
p573
ag573
ag573
ag573
ag573
ag573
ag573
aS'843'
p574
ag574
ag574
ag574
ag574
ag574
ag574
aS'845'
p575
ag575
ag575
ag575
ag575
ag575
ag575
aS'847'
p576
ag576
ag576
ag576
ag576
ag576
ag576
aS'848'
p577
ag577
ag577
ag577
ag577
ag577
ag577
aS'850'
p578
ag578
ag578
ag578
ag578
ag578
ag578
aS'851'
p579
ag579
ag579
ag579
ag579
ag579
ag579
aS'853'
p580
ag580
ag580
ag580
ag580
ag580
ag580
aS'854'
p581
ag581
ag581
ag581
ag581
ag581
ag581
aS'856'
p582
ag582
ag582
ag582
ag582
ag582
ag582
aS'857'
p583
ag583
ag583
ag583
ag583
ag583
ag583
aS'858'
p584
ag584
ag584
ag584
ag584
ag584
ag584
aS'859'
p585
ag585
ag585
ag585
ag585
ag585
ag585
aS'860'
p586
ag586
ag586
ag586
ag586
ag586
ag586
aS'861'
p587
ag587
ag587
ag587
ag587
ag587
ag587
aS'863'
p588
ag588
ag588
ag588
ag588
ag588
ag588
aS'865'
p589
ag589
ag589
ag589
ag589
ag589
ag589
aS'868'
p590
ag590
ag590
ag590
ag590
ag590
ag590
aS'869'
p591
ag591
ag591
ag591
ag591
ag591
ag591
aS'870'
p592
ag592
ag592
ag592
ag592
ag592
ag592
aS'871'
p593
ag593
ag593
ag593
ag593
ag593
ag593
aS'872'
p594
ag594
ag594
ag594
ag594
ag594
ag594
aS'873'
p595
ag595
ag595
ag595
ag595
ag595
ag595
aS'875'
p596
ag596
ag596
ag596
ag596
ag596
ag596
aS'876'
p597
ag597
ag597
ag597
ag597
ag597
ag597
aS'882'
p598
ag598
ag598
ag598
ag598
ag598
ag598
aS'883'
p599
ag599
ag599
ag599
ag599
ag599
ag599
aS'884'
p600
ag600
ag600
ag600
ag600
ag600
ag600
aS'885'
p601
ag601
ag601
ag601
ag601
ag601
ag601
aS'886'
p602
ag602
ag602
ag602
ag602
ag602
ag602
aS'887'
p603
ag603
ag603
ag603
ag603
ag603
ag603
aS'893'
p604
ag604
ag604
ag604
ag604
ag604
ag604
aS'895'
p605
ag605
ag605
ag605
ag605
ag605
ag605
aS'896'
p606
ag606
ag606
ag606
ag606
ag606
ag606
aS'897'
p607
ag607
ag607
ag607
ag607
ag607
ag607
aS'898'
p608
ag608
ag608
ag608
ag608
ag608
ag608
aS'899'
p609
ag609
ag609
ag609
ag609
ag609
ag609
aS'900'
p610
ag610
ag610
ag610
ag610
ag610
ag610
aS'902'
p611
ag611
ag611
ag611
ag611
ag611
ag611
aS'904'
p612
ag612
ag612
ag612
ag612
ag612
ag612
aS'905'
p613
ag613
ag613
ag613
ag613
ag613
ag613
aS'906'
p614
ag614
ag614
ag614
ag614
ag614
ag614
aS'907'
p615
ag615
ag615
ag615
ag615
ag615
ag615
aS'908'
p616
ag616
ag616
ag616
ag616
ag616
ag616
aS'909'
p617
ag617
ag617
ag617
ag617
ag617
ag617
aS'910'
p618
ag618
ag618
ag618
ag618
ag618
ag618
aS'912'
p619
ag619
ag619
ag619
ag619
ag619
ag619
aS'913'
p620
ag620
ag620
ag620
ag620
ag620
ag620
aS'914'
p621
ag621
ag621
ag621
ag621
ag621
ag621
aS'915'
p622
ag622
ag622
ag622
ag622
ag622
ag622
aS'916'
p623
ag623
ag623
ag623
ag623
ag623
ag623
aS'918'
p624
ag624
ag624
ag624
ag624
ag624
ag624
aS'919'
p625
ag625
ag625
ag625
ag625
ag625
ag625
aS'920'
p626
ag626
ag626
ag626
ag626
ag626
ag626
aS'921'
p627
ag627
ag627
ag627
ag627
ag627
ag627
aS'922'
p628
ag628
ag628
ag628
ag628
ag628
ag628
aS'924'
p629
ag629
ag629
ag629
ag629
ag629
ag629
aS'925'
p630
ag630
ag630
ag630
ag630
ag630
ag630
aS'926'
p631
ag631
ag631
ag631
ag631
ag631
ag631
aS'927'
p632
ag632
ag632
ag632
ag632
ag632
ag632
aS'928'
p633
ag633
ag633
ag633
ag633
ag633
ag633
aS'929'
p634
ag634
ag634
ag634
ag634
ag634
ag634
aS'930'
p635
ag635
ag635
ag635
ag635
ag635
ag635
aS'931'
p636
ag636
ag636
ag636
ag636
ag636
ag636
aS'932'
p637
ag637
ag637
ag637
ag637
ag637
ag637
aS'933'
p638
ag638
ag638
ag638
ag638
ag638
ag638
aS'934'
p639
ag639
ag639
ag639
ag639
ag639
ag639
aS'935'
p640
ag640
ag640
ag640
ag640
ag640
ag640
aS'936'
p641
ag641
ag641
ag641
ag641
ag641
ag641
aS'937'
p642
ag642
ag642
ag642
ag642
ag642
ag642
aS'939'
p643
ag643
ag643
ag643
ag643
ag643
ag643
aS'940'
p644
ag644
ag644
ag644
ag644
ag644
ag644
aS'941'
p645
ag645
ag645
ag645
ag645
ag645
ag645
aS'944'
p646
ag646
ag646
ag646
ag646
ag646
ag646
aS'945'
p647
ag647
ag647
ag647
ag647
ag647
ag647
aS'948'
p648
ag648
ag648
ag648
ag648
ag648
ag648
aS'950'
p649
ag649
ag649
ag649
ag649
ag649
ag649
aS'952'
p650
ag650
ag650
ag650
ag650
ag650
ag650
aS'953'
p651
ag651
ag651
ag651
ag651
ag651
ag651
aS'955'
p652
ag652
ag652
ag652
ag652
ag652
ag652
aS'956'
p653
ag653
ag653
ag653
ag653
ag653
ag653
aS'958'
p654
ag654
ag654
ag654
ag654
ag654
ag654
aS'959'
p655
ag655
ag655
ag655
ag655
ag655
ag655
aS'960'
p656
ag656
ag656
ag656
ag656
ag656
ag656
aS'961'
p657
ag657
aS'962'
p658
ag658
ag658
ag658
ag658
ag658
ag658
aS'963'
p659
ag659
ag659
ag659
ag659
ag659
ag659
aS'964'
p660
ag660
ag660
ag660
ag660
ag660
ag660
aS'965'
p661
ag661
ag661
ag661
ag661
ag661
ag661
aS'966'
p662
ag662
ag662
ag662
ag662
ag662
ag662
aS'967'
p663
ag663
ag663
ag663
ag663
ag663
ag663
aS'968'
p664
ag664
ag664
ag664
ag664
ag664
ag664
aS'969'
p665
ag665
ag665
ag665
ag665
ag665
ag665
aS'970'
p666
ag666
ag666
ag666
ag666
ag666
ag666
aS'971'
p667
ag667
ag667
ag667
ag667
ag667
ag667
aS'972'
p668
ag668
ag668
ag668
ag668
ag668
ag668
aS'973'
p669
ag669
ag669
ag669
ag669
ag669
ag669
aS'974'
p670
ag670
ag670
ag670
ag670
ag670
ag670
aS'975'
p671
ag671
ag671
ag671
ag671
ag671
ag671
aS'977'
p672
ag672
ag672
ag672
ag672
ag672
ag672
aS'978'
p673
ag673
ag673
ag673
ag673
ag673
ag673
aS'979'
p674
ag674
ag674
ag674
ag674
ag674
ag674
aS'980'
p675
ag675
ag675
ag675
ag675
ag675
ag675
aS'981'
p676
ag676
ag676
ag676
ag676
ag676
ag676
aS'984'
p677
ag677
ag677
ag677
ag677
ag677
ag677
aS'987'
p678
ag678
ag678
ag678
ag678
ag678
ag678
aS'988'
p679
ag679
ag679
ag679
ag679
ag679
ag679
aS'989'
p680
ag680
ag680
ag680
ag680
ag680
ag680
aS'990'
p681
ag681
ag681
ag681
ag681
ag681
ag681
aS'991'
p682
ag682
ag682
ag682
ag682
ag682
ag682
aS'992'
p683
ag683
ag683
ag683
ag683
ag683
ag683
aS'993'
p684
ag684
ag684
ag684
ag684
ag684
ag684
aS'995'
p685
ag685
ag685
ag685
ag685
ag685
ag685
aS'996'
p686
ag686
ag686
ag686
ag686
ag686
ag686
aS'999'
p687
ag687
ag687
ag687
ag687
ag687
ag687
aS'1000'
p688
ag688
ag688
ag688
ag688
ag688
ag688
aS'1001'
p689
ag689
ag689
ag689
ag689
ag689
ag689
aS'1002'
p690
ag690
ag690
ag690
ag690
ag690
ag690
aS'1003'
p691
ag691
ag691
ag691
ag691
ag691
ag691
aS'1004'
p692
ag692
ag692
ag692
ag692
ag692
ag692
aS'1005'
p693
ag693
ag693
ag693
ag693
ag693
ag693
aS'1006'
p694
ag694
ag694
ag694
ag694
ag694
ag694
aS'1007'
p695
ag695
ag695
ag695
ag695
ag695
ag695
aS'1009'
p696
ag696
ag696
ag696
ag696
ag696
ag696
aS'1010'
p697
ag697
ag697
ag697
ag697
ag697
ag697
aS'1012'
p698
ag698
ag698
ag698
ag698
ag698
ag698
aS'1014'
p699
ag699
ag699
ag699
ag699
ag699
ag699
aS'1015'
p700
ag700
ag700
ag700
ag700
ag700
ag700
aS'1016'
p701
ag701
ag701
ag701
ag701
ag701
ag701
aS'1017'
p702
ag702
ag702
ag702
ag702
ag702
ag702
aS'1020'
p703
ag703
ag703
ag703
ag703
ag703
ag703
aS'1021'
p704
ag704
ag704
ag704
ag704
ag704
ag704
aS'1023'
p705
ag705
ag705
ag705
ag705
ag705
ag705
aS'1024'
p706
ag706
ag706
ag706
ag706
ag706
ag706
aS'1025'
p707
ag707
ag707
ag707
ag707
ag707
ag707
aS'1027'
p708
ag708
ag708
ag708
ag708
ag708
ag708
aS'1028'
p709
ag709
ag709
ag709
ag709
ag709
ag709
aS'1029'
p710
ag710
ag710
ag710
ag710
ag710
ag710
aS'1031'
p711
ag711
ag711
ag711
ag711
ag711
ag711
aS'1032'
p712
ag712
ag712
ag712
ag712
ag712
ag712
aS'1034'
p713
ag713
ag713
ag713
ag713
ag713
ag713
aS'1035'
p714
ag714
ag714
ag714
ag714
ag714
ag714
aS'1036'
p715
ag715
ag715
ag715
ag715
ag715
ag715
aS'1037'
p716
ag716
ag716
ag716
ag716
ag716
ag716
aS'1038'
p717
ag717
ag717
ag717
ag717
ag717
ag717
aS'1039'
p718
ag718
ag718
ag718
ag718
ag718
ag718
aS'1040'
p719
ag719
ag719
ag719
ag719
ag719
ag719
aS'1044'
p720
ag720
ag720
ag720
ag720
ag720
ag720
aS'1046'
p721
ag721
ag721
ag721
ag721
ag721
ag721
aS'1047'
p722
ag722
ag722
ag722
ag722
ag722
ag722
aS'1048'
p723
ag723
ag723
ag723
ag723
ag723
ag723
aS'1050'
p724
ag724
ag724
ag724
ag724
ag724
ag724
aS'1051'
p725
ag725
ag725
ag725
ag725
ag725
ag725
aS'1054'
p726
ag726
ag726
ag726
ag726
ag726
ag726
aS'1055'
p727
ag727
ag727
ag727
ag727
ag727
ag727
aS'1056'
p728
ag728
ag728
ag728
ag728
ag728
ag728
aS'1057'
p729
ag729
ag729
ag729
ag729
ag729
ag729
aS'1058'
p730
ag730
ag730
ag730
ag730
ag730
ag730
aS'1059'
p731
ag731
ag731
ag731
ag731
ag731
ag731
aS'1060'
p732
ag732
ag732
ag732
ag732
ag732
ag732
aS'1061'
p733
ag733
ag733
ag733
ag733
ag733
ag733
aS'1062'
p734
ag734
ag734
ag734
ag734
ag734
ag734
aS'1064'
p735
ag735
ag735
ag735
ag735
ag735
ag735
aS'1066'
p736
ag736
ag736
ag736
ag736
ag736
ag736
aS'1067'
p737
ag737
ag737
ag737
ag737
ag737
ag737
aS'1069'
p738
ag738
ag738
ag738
ag738
ag738
ag738
aS'1070'
p739
ag739
ag739
ag739
ag739
ag739
ag739
aS'1071'
p740
ag740
ag740
ag740
ag740
ag740
ag740
aS'1072'
p741
ag741
ag741
ag741
ag741
ag741
ag741
aS'1076'
p742
ag742
ag742
ag742
ag742
ag742
ag742
aS'1077'
p743
ag743
ag743
ag743
ag743
ag743
ag743
aS'1078'
p744
ag744
ag744
ag744
ag744
ag744
ag744
aS'1079'
p745
ag745
ag745
ag745
ag745
ag745
ag745
aS'1080'
p746
ag746
ag746
ag746
ag746
ag746
ag746
aS'1081'
p747
ag747
ag747
ag747
ag747
ag747
ag747
aS'1082'
p748
ag748
ag748
ag748
ag748
ag748
ag748
aS'1083'
p749
ag749
ag749
ag749
ag749
ag749
ag749
aS'1084'
p750
ag750
ag750
ag750
ag750
ag750
ag750
aS'1086'
p751
ag751
ag751
ag751
ag751
ag751
ag751
aS'1087'
p752
ag752
ag752
ag752
ag752
ag752
ag752
aS'1088'
p753
ag753
ag753
ag753
ag753
ag753
ag753
aS'1089'
p754
ag754
ag754
ag754
ag754
ag754
ag754
aS'1090'
p755
ag755
ag755
ag755
ag755
ag755
ag755
aS'1092'
p756
ag756
ag756
ag756
ag756
ag756
ag756
aS'1093'
p757
ag757
ag757
ag757
ag757
ag757
ag757
aS'1094'
p758
ag758
ag758
ag758
ag758
ag758
ag758
aS'1095'
p759
ag759
ag759
ag759
ag759
ag759
ag759
aS'1096'
p760
ag760
ag760
ag760
ag760
ag760
ag760
aS'1097'
p761
ag761
ag761
ag761
ag761
ag761
ag761
aS'1098'
p762
ag762
ag762
ag762
ag762
ag762
ag762
aS'1099'
p763
ag763
ag763
ag763
ag763
ag763
ag763
aS'1101'
p764
ag764
ag764
ag764
ag764
ag764
ag764
aS'1103'
p765
ag765
ag765
ag765
ag765
ag765
ag765
aS'1104'
p766
ag766
ag766
ag766
ag766
ag766
ag766
aS'1106'
p767
ag767
ag767
ag767
ag767
ag767
ag767
aS'1108'
p768
ag768
ag768
ag768
ag768
ag768
ag768
aS'1109'
p769
ag769
ag769
ag769
ag769
ag769
ag769
aS'1110'
p770
ag770
ag770
ag770
ag770
ag770
ag770
aS'1114'
p771
ag771
ag771
ag771
ag771
ag771
ag771
aS'1115'
p772
ag772
ag772
ag772
ag772
ag772
ag772
aS'1117'
p773
ag773
ag773
ag773
ag773
ag773
ag773
aS'1118'
p774
ag774
ag774
ag774
ag774
ag774
ag774
aS'1120'
p775
ag775
ag775
ag775
ag775
ag775
ag775
aS'1121'
p776
ag776
ag776
ag776
ag776
ag776
ag776
aS'1122'
p777
ag777
ag777
ag777
ag777
ag777
ag777
aS'1124'
p778
ag778
ag778
ag778
ag778
ag778
ag778
aS'1125'
p779
ag779
ag779
ag779
ag779
ag779
ag779
aS'1126'
p780
ag780
ag780
ag780
ag780
ag780
ag780
aS'1127'
p781
ag781
ag781
ag781
ag781
ag781
ag781
aS'1128'
p782
ag782
ag782
ag782
ag782
ag782
ag782
aS'1129'
p783
ag783
ag783
ag783
ag783
ag783
ag783
aS'1130'
p784
ag784
ag784
ag784
ag784
ag784
ag784
aS'1131'
p785
ag785
ag785
ag785
ag785
ag785
ag785
aS'1132'
p786
ag786
ag786
ag786
ag786
ag786
ag786
aS'1133'
p787
ag787
ag787
ag787
ag787
ag787
ag787
aS'1134'
p788
ag788
ag788
ag788
ag788
ag788
ag788
aS'1135'
p789
ag789
ag789
ag789
ag789
ag789
ag789
aS'1136'
p790
ag790
ag790
ag790
ag790
ag790
ag790
aS'1137'
p791
ag791
ag791
ag791
ag791
ag791
ag791
aS'1138'
p792
ag792
ag792
ag792
ag792
ag792
ag792
aS'1139'
p793
ag793
ag793
ag793
ag793
ag793
ag793
aS'1142'
p794
ag794
ag794
ag794
ag794
ag794
ag794
aS'1145'
p795
ag795
ag795
ag795
ag795
ag795
ag795
aS'1146'
p796
ag796
ag796
ag796
ag796
ag796
ag796
aS'1147'
p797
ag797
ag797
ag797
ag797
ag797
ag797
aS'1148'
p798
ag798
ag798
ag798
ag798
ag798
ag798
aS'1149'
p799
ag799
ag799
ag799
ag799
ag799
ag799
aS'1150'
p800
ag800
ag800
ag800
ag800
ag800
ag800
aS'1152'
p801
ag801
ag801
ag801
ag801
ag801
ag801
aS'1154'
p802
ag802
ag802
ag802
ag802
ag802
ag802
aS'1157'
p803
ag803
ag803
ag803
ag803
ag803
ag803
aS'1158'
p804
ag804
ag804
ag804
ag804
ag804
ag804
aS'1159'
p805
ag805
ag805
ag805
ag805
ag805
ag805
aS'1163'
p806
ag806
ag806
ag806
ag806
ag806
ag806
aS'1165'
p807
ag807
ag807
ag807
ag807
ag807
ag807
aS'1166'
p808
ag808
ag808
ag808
ag808
ag808
ag808
aS'1167'
p809
ag809
ag809
ag809
ag809
ag809
ag809
aS'1168'
p810
ag810
ag810
ag810
ag810
ag810
ag810
aS'1169'
p811
ag811
ag811
ag811
ag811
ag811
ag811
aS'1170'
p812
ag812
ag812
ag812
ag812
ag812
ag812
aS'1171'
p813
ag813
ag813
ag813
ag813
ag813
ag813
aS'1172'
p814
ag814
ag814
ag814
ag814
ag814
ag814
aS'1174'
p815
ag815
ag815
ag815
ag815
ag815
ag815
aS'1177'
p816
ag816
ag816
ag816
ag816
ag816
ag816
aS'1178'
p817
ag817
ag817
ag817
ag817
ag817
ag817
aS'1182'
p818
ag818
ag818
ag818
ag818
ag818
ag818
aS'1183'
p819
ag819
ag819
ag819
ag819
ag819
ag819
aS'1184'
p820
ag820
ag820
ag820
ag820
ag820
ag820
aS'1186'
p821
ag821
ag821
ag821
ag821
ag821
ag821
aS'1187'
p822
ag822
ag822
ag822
ag822
ag822
ag822
aS'1189'
p823
ag823
ag823
ag823
ag823
ag823
ag823
aS'1190'
p824
ag824
ag824
ag824
ag824
ag824
ag824
aS'1192'
p825
ag825
ag825
ag825
ag825
ag825
ag825
aS'1193'
p826
ag826
ag826
ag826
ag826
ag826
ag826
aS'1194'
p827
ag827
ag827
ag827
ag827
ag827
ag827
aS'1195'
p828
ag828
ag828
ag828
ag828
ag828
ag828
aS'1196'
p829
ag829
ag829
ag829
ag829
ag829
ag829
aS'1197'
p830
ag830
ag830
ag830
ag830
ag830
ag830
aS'1200'
p831
ag831
ag831
ag831
ag831
ag831
ag831
aS'1201'
p832
ag832
ag832
ag832
ag832
ag832
ag832
aS'1202'
p833
ag833
ag833
ag833
ag833
ag833
ag833
aS'1203'
p834
ag834
ag834
ag834
ag834
ag834
ag834
aS'1204'
p835
ag835
ag835
ag835
ag835
ag835
ag835
aS'1205'
p836
ag836
ag836
ag836
ag836
ag836
ag836
aS'1206'
p837
ag837
ag837
ag837
ag837
ag837
ag837
aS'1207'
p838
ag838
ag838
ag838
ag838
ag838
ag838
aS'1208'
p839
ag839
ag839
ag839
ag839
ag839
ag839
aS'1209'
p840
ag840
ag840
ag840
ag840
ag840
ag840
aS'1210'
p841
ag841
ag841
ag841
ag841
ag841
ag841
aS'1211'
p842
ag842
ag842
ag842
ag842
ag842
ag842
aS'1212'
p843
ag843
ag843
ag843
ag843
ag843
ag843
aS'1213'
p844
ag844
ag844
ag844
ag844
ag844
ag844
aS'1215'
p845
ag845
ag845
ag845
ag845
ag845
ag845
aS'1216'
p846
ag846
ag846
ag846
ag846
ag846
ag846
aS'1217'
p847
ag847
ag847
ag847
ag847
ag847
ag847
aS'1219'
p848
ag848
ag848
ag848
ag848
ag848
ag848
aS'1220'
p849
ag849
ag849
ag849
ag849
ag849
ag849
aS'1221'
p850
ag850
ag850
ag850
ag850
ag850
ag850
aS'1222'
p851
ag851
ag851
ag851
ag851
ag851
ag851
aS'1225'
p852
ag852
ag852
ag852
ag852
ag852
ag852
aS'1227'
p853
ag853
ag853
ag853
ag853
ag853
ag853
aS'1229'
p854
ag854
ag854
ag854
ag854
ag854
ag854
aS'1230'
p855
ag855
ag855
ag855
ag855
ag855
ag855
aS'1233'
p856
ag856
ag856
ag856
ag856
ag856
ag856
aS'1235'
p857
ag857
ag857
ag857
ag857
ag857
ag857
aS'1236'
p858
ag858
ag858
ag858
ag858
ag858
ag858
aS'1237'
p859
ag859
ag859
ag859
ag859
ag859
ag859
aS'1238'
p860
ag860
ag860
ag860
ag860
ag860
ag860
aS'1239'
p861
ag861
ag861
ag861
ag861
ag861
ag861
aS'1242'
p862
ag862
ag862
ag862
ag862
ag862
ag862
aS'1245'
p863
ag863
ag863
ag863
ag863
ag863
ag863
aS'1249'
p864
ag864
ag864
ag864
ag864
ag864
ag864
aS'1250'
p865
ag865
ag865
ag865
ag865
ag865
ag865
aS'1251'
p866
ag866
ag866
ag866
ag866
ag866
ag866
aS'1254'
p867
ag867
ag867
ag867
ag867
ag867
ag867
aS'1256'
p868
ag868
ag868
ag868
ag868
ag868
ag868
aS'1257'
p869
ag869
ag869
ag869
ag869
ag869
ag869
aS'1258'
p870
ag870
ag870
ag870
ag870
ag870
ag870
aS'1260'
p871
ag871
ag871
ag871
ag871
ag871
ag871
aS'1262'
p872
ag872
ag872
ag872
ag872
ag872
ag872
aS'1263'
p873
ag873
ag873
ag873
ag873
ag873
ag873
aS'1264'
p874
ag874
ag874
ag874
ag874
ag874
ag874
aS'1267'
p875
ag875
ag875
ag875
ag875
ag875
ag875
aS'1269'
p876
ag876
ag876
ag876
ag876
ag876
ag876
aS'1270'
p877
ag877
ag877
ag877
ag877
ag877
ag877
aS'1272'
p878
ag878
ag878
ag878
ag878
ag878
ag878
aS'1273'
p879
ag879
ag879
ag879
ag879
ag879
ag879
aS'1275'
p880
ag880
ag880
ag880
ag880
ag880
ag880
aS'1277'
p881
ag881
ag881
ag881
ag881
ag881
ag881
aS'1278'
p882
ag882
ag882
ag882
ag882
ag882
ag882
aS'1279'
p883
ag883
ag883
ag883
ag883
ag883
ag883
aS'1280'
p884
ag884
ag884
ag884
ag884
ag884
ag884
aS'1283'
p885
ag885
ag885
ag885
ag885
ag885
ag885
aS'1284'
p886
ag886
ag886
ag886
ag886
ag886
ag886
aS'1285'
p887
ag887
ag887
ag887
ag887
ag887
ag887
aS'1286'
p888
ag888
ag888
ag888
ag888
ag888
ag888
aS'1287'
p889
ag889
ag889
ag889
ag889
ag889
ag889
aS'1288'
p890
ag890
ag890
ag890
ag890
ag890
ag890
aS'1289'
p891
ag891
ag891
ag891
ag891
ag891
ag891
aS'1290'
p892
ag892
ag892
ag892
ag892
ag892
ag892
aS'1291'
p893
ag893
ag893
ag893
ag893
ag893
ag893
aS'1293'
p894
ag894
ag894
ag894
ag894
ag894
ag894
aS'1294'
p895
ag895
ag895
ag895
ag895
ag895
ag895
aS'1297'
p896
ag896
ag896
ag896
ag896
ag896
ag896
aS'1298'
p897
ag897
ag897
ag897
ag897
ag897
ag897
aS'1299'
p898
ag898
ag898
ag898
ag898
ag898
ag898
aS'1302'
p899
ag899
ag899
ag899
ag899
ag899
ag899
aS'1304'
p900
ag900
ag900
ag900
ag900
ag900
ag900
aS'1305'
p901
ag901
ag901
ag901
ag901
ag901
ag901
aS'1306'
p902
ag902
ag902
ag902
ag902
ag902
ag902
aS'1307'
p903
ag903
ag903
ag903
ag903
ag903
ag903
aS'1309'
p904
ag904
ag904
ag904
ag904
ag904
ag904
aS'1312'
p905
ag905
ag905
ag905
ag905
ag905
ag905
aS'1313'
p906
ag906
ag906
ag906
ag906
ag906
ag906
aS'1314'
p907
ag907
ag907
ag907
ag907
ag907
ag907
aS'1317'
p908
ag908
ag908
ag908
ag908
ag908
ag908
aS'1320'
p909
ag909
ag909
ag909
ag909
ag909
ag909
aS'1321'
p910
ag910
ag910
ag910
ag910
ag910
ag910
aS'1325'
p911
ag911
ag911
ag911
ag911
ag911
ag911
aS'1326'
p912
ag912
ag912
ag912
ag912
ag912
ag912
aS'1328'
p913
ag913
ag913
ag913
ag913
ag913
ag913
aS'1329'
p914
ag914
ag914
ag914
ag914
ag914
ag914
aS'1331'
p915
ag915
ag915
ag915
ag915
ag915
ag915
aS'1332'
p916
ag916
ag916
ag916
ag916
ag916
ag916
aS'1336'
p917
ag917
ag917
ag917
ag917
ag917
ag917
aS'1337'
p918
ag918
ag918
ag918
ag918
ag918
ag918
aS'1340'
p919
ag919
ag919
ag919
ag919
ag919
ag919
aS'1341'
p920
ag920
ag920
ag920
ag920
ag920
ag920
aS'1342'
p921
ag921
ag921
ag921
ag921
ag921
ag921
aS'1344'
p922
ag922
ag922
ag922
ag922
ag922
ag922
aS'1345'
p923
ag923
ag923
ag923
ag923
ag923
ag923
aS'1347'
p924
ag924
ag924
ag924
ag924
ag924
ag924
aS'1348'
p925
ag925
ag925
ag925
ag925
ag925
ag925
aS'1349'
p926
ag926
ag926
ag926
ag926
ag926
ag926
aS'1350'
p927
ag927
ag927
ag927
ag927
ag927
ag927
aS'1351'
p928
ag928
ag928
ag928
ag928
ag928
ag928
aS'1352'
p929
ag929
ag929
ag929
ag929
ag929
ag929
aS'1353'
p930
ag930
ag930
ag930
ag930
ag930
ag930
aS'1354'
p931
ag931
ag931
ag931
ag931
ag931
ag931
aS'1355'
p932
ag932
ag932
ag932
ag932
ag932
ag932
aS'1356'
p933
ag933
ag933
ag933
ag933
ag933
ag933
aS'1357'
p934
ag934
ag934
ag934
ag934
ag934
ag934
aS'1358'
p935
ag935
ag935
ag935
ag935
ag935
ag935
aS'1359'
p936
ag936
ag936
ag936
ag936
ag936
ag936
aS'1360'
p937
ag937
ag937
ag937
ag937
ag937
ag937
aS'1361'
p938
ag938
ag938
ag938
ag938
ag938
ag938
aS'1362'
p939
ag939
ag939
ag939
ag939
ag939
ag939
aS'1363'
p940
ag940
ag940
ag940
ag940
ag940
ag940
aS'1365'
p941
ag941
ag941
ag941
ag941
ag941
ag941
aS'1366'
p942
ag942
ag942
ag942
ag942
ag942
ag942
aS'1367'
p943
ag943
ag943
ag943
ag943
ag943
ag943
aS'1369'
p944
ag944
ag944
ag944
ag944
ag944
ag944
aS'1371'
p945
ag945
ag945
ag945
ag945
ag945
ag945
aS'1373'
p946
ag946
ag946
ag946
ag946
ag946
ag946
aS'1377'
p947
ag947
ag947
ag947
ag947
ag947
ag947
aS'1378'
p948
ag948
ag948
ag948
ag948
ag948
ag948
aS'1379'
p949
ag949
ag949
ag949
ag949
ag949
ag949
aS'1381'
p950
ag950
ag950
ag950
ag950
ag950
ag950
aS'1382'
p951
ag951
ag951
ag951
ag951
ag951
ag951
aS'1384'
p952
ag952
ag952
ag952
ag952
ag952
ag952
aS'1385'
p953
ag953
ag953
ag953
ag953
ag953
ag953
aS'1386'
p954
ag954
ag954
ag954
ag954
ag954
ag954
aS'1388'
p955
ag955
ag955
ag955
ag955
ag955
ag955
aS'1389'
p956
ag956
ag956
ag956
ag956
ag956
ag956
aS'1391'
p957
ag957
ag957
ag957
ag957
ag957
ag957
aS'1392'
p958
ag958
ag958
ag958
ag958
ag958
ag958
aS'1393'
p959
ag959
ag959
ag959
ag959
ag959
ag959
aS'1394'
p960
ag960
ag960
ag960
ag960
ag960
ag960
aS'1396'
p961
ag961
ag961
ag961
ag961
ag961
ag961
aS'1400'
p962
ag962
ag962
ag962
ag962
ag962
ag962
aS'1403'
p963
ag963
ag963
ag963
ag963
ag963
ag963
aS'1404'
p964
ag964
ag964
ag964
ag964
ag964
ag964
aS'1405'
p965
ag965
ag965
ag965
ag965
ag965
ag965
aS'1406'
p966
ag966
ag966
ag966
ag966
ag966
ag966
aS'1408'
p967
ag967
ag967
ag967
ag967
ag967
ag967
aS'1409'
p968
ag968
ag968
ag968
ag968
ag968
ag968
aS'1410'
p969
ag969
ag969
ag969
ag969
ag969
ag969
aS'1411'
p970
ag970
ag970
ag970
ag970
ag970
ag970
aS'1412'
p971
ag971
ag971
ag971
ag971
ag971
ag971
aS'1413'
p972
ag972
ag972
ag972
ag972
ag972
ag972
aS'1414'
p973
ag973
ag973
ag973
ag973
ag973
ag973
aS'1416'
p974
ag974
ag974
ag974
ag974
ag974
ag974
aS'1417'
p975
ag975
ag975
ag975
ag975
ag975
ag975
aS'1418'
p976
ag976
ag976
ag976
ag976
ag976
ag976
aS'1419'
p977
ag977
ag977
ag977
ag977
ag977
ag977
aS'1422'
p978
ag978
ag978
ag978
ag978
ag978
ag978
aS'1425'
p979
ag979
ag979
ag979
ag979
ag979
ag979
aS'1426'
p980
ag980
ag980
ag980
ag980
ag980
ag980
aS'1427'
p981
ag981
ag981
ag981
ag981
ag981
ag981
aS'1428'
p982
ag982
ag982
ag982
ag982
ag982
ag982
aS'1429'
p983
ag983
ag983
ag983
ag983
ag983
ag983
aS'1430'
p984
ag984
ag984
ag984
ag984
ag984
ag984
aS'1432'
p985
ag985
ag985
ag985
ag985
ag985
ag985
aS'1434'
p986
ag986
ag986
ag986
ag986
ag986
ag986
aS'1435'
p987
ag987
ag987
ag987
ag987
ag987
ag987
aS'1436'
p988
ag988
ag988
ag988
ag988
ag988
ag988
aS'1437'
p989
ag989
ag989
ag989
ag989
ag989
ag989
aS'1439'
p990
ag990
ag990
ag990
ag990
ag990
ag990
aS'1440'
p991
ag991
ag991
ag991
ag991
ag991
ag991
aS'1441'
p992
ag992
ag992
ag992
ag992
ag992
ag992
aS'1442'
p993
ag993
ag993
ag993
ag993
ag993
ag993
aS'1443'
p994
ag994
ag994
ag994
ag994
ag994
ag994
aS'1444'
p995
ag995
ag995
ag995
ag995
ag995
ag995
aS'1445'
p996
ag996
ag996
ag996
ag996
ag996
ag996
aS'1446'
p997
ag997
ag997
ag997
ag997
ag997
ag997
aS'1448'
p998
ag998
ag998
ag998
ag998
ag998
ag998
aS'1451'
p999
ag999
ag999
ag999
ag999
ag999
ag999
aS'1452'
p1000
ag1000
ag1000
ag1000
ag1000
ag1000
ag1000
aS'1453'
p1001
ag1001
ag1001
ag1001
ag1001
ag1001
ag1001
aS'1454'
p1002
ag1002
ag1002
ag1002
ag1002
ag1002
ag1002
aS'1455'
p1003
ag1003
ag1003
ag1003
ag1003
ag1003
ag1003
aS'1457'
p1004
ag1004
ag1004
ag1004
ag1004
ag1004
ag1004
aS'1458'
p1005
ag1005
ag1005
ag1005
ag1005
ag1005
ag1005
aS'1459'
p1006
ag1006
ag1006
ag1006
ag1006
ag1006
ag1006
aS'1461'
p1007
ag1007
ag1007
ag1007
ag1007
ag1007
ag1007
aS'1462'
p1008
ag1008
ag1008
ag1008
ag1008
ag1008
ag1008
aS'1463'
p1009
ag1009
ag1009
ag1009
ag1009
ag1009
ag1009
aS'1464'
p1010
ag1010
ag1010
ag1010
ag1010
ag1010
ag1010
aS'1468'
p1011
ag1011
ag1011
ag1011
ag1011
ag1011
ag1011
aS'1470'
p1012
ag1012
ag1012
ag1012
ag1012
ag1012
ag1012
aS'1471'
p1013
ag1013
ag1013
ag1013
ag1013
ag1013
ag1013
aS'1472'
p1014
ag1014
ag1014
ag1014
ag1014
ag1014
ag1014
aS'1476'
p1015
ag1015
ag1015
ag1015
ag1015
ag1015
ag1015
aS'1477'
p1016
ag1016
ag1016
ag1016
ag1016
ag1016
ag1016
aS'1478'
p1017
ag1017
ag1017
ag1017
ag1017
ag1017
ag1017
aS'1481'
p1018
ag1018
ag1018
ag1018
ag1018
ag1018
ag1018
aS'1482'
p1019
ag1019
ag1019
ag1019
ag1019
ag1019
ag1019
aS'1483'
p1020
ag1020
ag1020
ag1020
ag1020
ag1020
ag1020
aS'1484'
p1021
ag1021
ag1021
ag1021
ag1021
ag1021
ag1021
aS'1485'
p1022
ag1022
ag1022
ag1022
ag1022
ag1022
ag1022
aS'1487'
p1023
ag1023
ag1023
ag1023
ag1023
ag1023
ag1023
aS'1488'
p1024
ag1024
ag1024
ag1024
ag1024
ag1024
ag1024
aS'1489'
p1025
ag1025
ag1025
ag1025
ag1025
ag1025
ag1025
aS'1491'
p1026
ag1026
ag1026
ag1026
ag1026
ag1026
ag1026
aS'1492'
p1027
ag1027
ag1027
ag1027
ag1027
ag1027
ag1027
aS'1494'
p1028
ag1028
ag1028
ag1028
ag1028
ag1028
ag1028
aS'1495'
p1029
ag1029
ag1029
ag1029
ag1029
ag1029
ag1029
aS'1497'
p1030
ag1030
ag1030
ag1030
ag1030
ag1030
ag1030
aS'1498'
p1031
ag1031
ag1031
ag1031
ag1031
ag1031
ag1031
aS'1500'
p1032
ag1032
ag1032
ag1032
ag1032
ag1032
ag1032
aS'1501'
p1033
ag1033
ag1033
ag1033
ag1033
ag1033
ag1033
aS'1503'
p1034
ag1034
ag1034
ag1034
ag1034
ag1034
ag1034
aS'1504'
p1035
ag1035
ag1035
ag1035
ag1035
ag1035
ag1035
aS'1505'
p1036
ag1036
ag1036
ag1036
ag1036
ag1036
ag1036
aS'1507'
p1037
ag1037
ag1037
ag1037
ag1037
ag1037
ag1037
aS'1508'
p1038
ag1038
ag1038
ag1038
ag1038
ag1038
ag1038
aS'1509'
p1039
ag1039
ag1039
ag1039
ag1039
ag1039
ag1039
aS'1511'
p1040
ag1040
ag1040
ag1040
ag1040
ag1040
ag1040
aS'1512'
p1041
ag1041
ag1041
ag1041
ag1041
ag1041
ag1041
aS'1513'
p1042
ag1042
ag1042
ag1042
ag1042
ag1042
ag1042
aS'1514'
p1043
ag1043
ag1043
ag1043
ag1043
ag1043
ag1043
aS'1515'
p1044
ag1044
ag1044
ag1044
ag1044
ag1044
ag1044
aS'1516'
p1045
ag1045
ag1045
ag1045
ag1045
ag1045
ag1045
aS'1517'
p1046
ag1046
ag1046
ag1046
ag1046
ag1046
ag1046
aS'1518'
p1047
ag1047
ag1047
ag1047
ag1047
ag1047
ag1047
aS'1519'
p1048
ag1048
ag1048
ag1048
ag1048
ag1048
ag1048
aS'1521'
p1049
ag1049
ag1049
ag1049
ag1049
ag1049
ag1049
aS'1522'
p1050
ag1050
ag1050
ag1050
ag1050
ag1050
ag1050
aS'1523'
p1051
ag1051
ag1051
ag1051
ag1051
ag1051
ag1051
aS'1524'
p1052
ag1052
ag1052
ag1052
ag1052
ag1052
ag1052
aS'1525'
p1053
ag1053
ag1053
ag1053
ag1053
ag1053
ag1053
aS'1528'
p1054
ag1054
ag1054
ag1054
ag1054
ag1054
ag1054
aS'1529'
p1055
ag1055
ag1055
ag1055
ag1055
ag1055
ag1055
aS'1530'
p1056
ag1056
ag1056
ag1056
ag1056
ag1056
ag1056
aS'1531'
p1057
ag1057
ag1057
ag1057
ag1057
ag1057
ag1057
aS'1532'
p1058
ag1058
ag1058
ag1058
ag1058
ag1058
ag1058
aS'1534'
p1059
ag1059
ag1059
ag1059
ag1059
ag1059
ag1059
aS'1535'
p1060
ag1060
ag1060
ag1060
ag1060
ag1060
ag1060
aS'1536'
p1061
ag1061
ag1061
ag1061
ag1061
ag1061
ag1061
aS'1537'
p1062
ag1062
ag1062
ag1062
ag1062
ag1062
ag1062
aS'1541'
p1063
ag1063
ag1063
ag1063
ag1063
ag1063
ag1063
aS'1543'
p1064
ag1064
ag1064
ag1064
ag1064
ag1064
ag1064
aS'1544'
p1065
ag1065
ag1065
ag1065
ag1065
ag1065
ag1065
aS'1546'
p1066
ag1066
ag1066
ag1066
ag1066
ag1066
ag1066
aS'1549'
p1067
ag1067
ag1067
ag1067
ag1067
ag1067
ag1067
aS'1550'
p1068
ag1068
ag1068
ag1068
ag1068
ag1068
ag1068
aS'1551'
p1069
ag1069
ag1069
ag1069
ag1069
ag1069
ag1069
aS'1553'
p1070
ag1070
ag1070
ag1070
ag1070
ag1070
ag1070
aS'1555'
p1071
ag1071
ag1071
ag1071
ag1071
ag1071
ag1071
aS'1556'
p1072
ag1072
ag1072
ag1072
ag1072
ag1072
ag1072
aS'1557'
p1073
ag1073
ag1073
ag1073
ag1073
ag1073
ag1073
aS'1558'
p1074
ag1074
ag1074
ag1074
ag1074
ag1074
ag1074
aS'1559'
p1075
ag1075
ag1075
ag1075
ag1075
ag1075
ag1075
aS'1560'
p1076
ag1076
ag1076
ag1076
ag1076
ag1076
ag1076
aS'1564'
p1077
ag1077
ag1077
ag1077
ag1077
ag1077
ag1077
aS'1565'
p1078
ag1078
ag1078
ag1078
ag1078
ag1078
ag1078
aS'1566'
p1079
ag1079
ag1079
ag1079
ag1079
ag1079
ag1079
aS'1570'
p1080
ag1080
ag1080
ag1080
ag1080
ag1080
ag1080
aS'1571'
p1081
ag1081
ag1081
ag1081
ag1081
ag1081
ag1081
aS'1572'
p1082
ag1082
ag1082
ag1082
ag1082
ag1082
ag1082
aS'1573'
p1083
ag1083
ag1083
ag1083
ag1083
ag1083
ag1083
aS'1574'
p1084
ag1084
ag1084
ag1084
ag1084
ag1084
ag1084
aS'1575'
p1085
ag1085
ag1085
ag1085
ag1085
ag1085
ag1085
aS'1576'
p1086
ag1086
ag1086
ag1086
ag1086
ag1086
ag1086
aS'1577'
p1087
ag1087
ag1087
ag1087
ag1087
ag1087
ag1087
aS'1579'
p1088
ag1088
ag1088
ag1088
ag1088
ag1088
ag1088
aS'1585'
p1089
ag1089
ag1089
ag1089
ag1089
ag1089
ag1089
aS'1588'
p1090
ag1090
ag1090
ag1090
ag1090
ag1090
ag1090
aS'1590'
p1091
ag1091
ag1091
ag1091
ag1091
ag1091
ag1091
aS'1591'
p1092
ag1092
ag1092
ag1092
ag1092
ag1092
ag1092
aS'1593'
p1093
ag1093
ag1093
ag1093
ag1093
ag1093
ag1093
aS'1594'
p1094
ag1094
ag1094
ag1094
ag1094
ag1094
ag1094
aS'1595'
p1095
ag1095
ag1095
ag1095
ag1095
ag1095
ag1095
aS'1598'
p1096
ag1096
ag1096
ag1096
ag1096
ag1096
ag1096
aS'1600'
p1097
ag1097
ag1097
ag1097
ag1097
ag1097
ag1097
aS'1601'
p1098
ag1098
ag1098
ag1098
ag1098
ag1098
ag1098
aS'1603'
p1099
ag1099
ag1099
ag1099
ag1099
ag1099
ag1099
aS'1604'
p1100
ag1100
ag1100
ag1100
ag1100
ag1100
ag1100
aS'1605'
p1101
ag1101
ag1101
ag1101
ag1101
ag1101
ag1101
aS'1606'
p1102
ag1102
ag1102
ag1102
ag1102
ag1102
ag1102
aS'1608'
p1103
ag1103
ag1103
ag1103
ag1103
ag1103
ag1103
aS'1610'
p1104
ag1104
ag1104
ag1104
ag1104
ag1104
ag1104
aS'1611'
p1105
ag1105
ag1105
ag1105
ag1105
ag1105
ag1105
aS'1612'
p1106
ag1106
ag1106
ag1106
ag1106
ag1106
ag1106
aS'1613'
p1107
ag1107
ag1107
ag1107
ag1107
ag1107
ag1107
aS'1614'
p1108
ag1108
ag1108
ag1108
ag1108
ag1108
ag1108
aS'1615'
p1109
ag1109
ag1109
ag1109
ag1109
ag1109
ag1109
aS'1616'
p1110
ag1110
ag1110
ag1110
ag1110
ag1110
ag1110
aS'1618'
p1111
ag1111
ag1111
ag1111
ag1111
ag1111
ag1111
aS'1622'
p1112
ag1112
ag1112
ag1112
ag1112
ag1112
ag1112
aS'1623'
p1113
ag1113
ag1113
ag1113
ag1113
ag1113
ag1113
aS'1624'
p1114
ag1114
ag1114
ag1114
ag1114
ag1114
ag1114
aS'1626'
p1115
ag1115
ag1115
ag1115
ag1115
ag1115
ag1115
aS'1627'
p1116
ag1116
ag1116
ag1116
ag1116
ag1116
ag1116
aS'1628'
p1117
ag1117
ag1117
ag1117
ag1117
ag1117
ag1117
aS'1629'
p1118
ag1118
ag1118
ag1118
ag1118
ag1118
ag1118
aS'1630'
p1119
ag1119
ag1119
ag1119
ag1119
ag1119
ag1119
aS'1632'
p1120
ag1120
ag1120
ag1120
ag1120
ag1120
ag1120
aS'1633'
p1121
ag1121
ag1121
ag1121
ag1121
ag1121
ag1121
aS'1635'
p1122
ag1122
ag1122
ag1122
ag1122
ag1122
ag1122
aS'1636'
p1123
ag1123
ag1123
ag1123
ag1123
ag1123
ag1123
aS'1637'
p1124
ag1124
ag1124
ag1124
ag1124
ag1124
ag1124
aS'1638'
p1125
ag1125
ag1125
ag1125
ag1125
ag1125
ag1125
aS'1639'
p1126
ag1126
ag1126
ag1126
ag1126
ag1126
ag1126
aS'1643'
p1127
ag1127
ag1127
ag1127
ag1127
ag1127
ag1127
aS'1644'
p1128
ag1128
ag1128
ag1128
ag1128
ag1128
ag1128
aS'1645'
p1129
ag1129
ag1129
ag1129
ag1129
ag1129
ag1129
aS'1646'
p1130
ag1130
ag1130
ag1130
ag1130
ag1130
ag1130
aS'1647'
p1131
ag1131
ag1131
ag1131
ag1131
ag1131
ag1131
aS'1649'
p1132
ag1132
ag1132
ag1132
ag1132
ag1132
ag1132
aS'1650'
p1133
ag1133
ag1133
ag1133
ag1133
ag1133
ag1133
aS'1651'
p1134
ag1134
ag1134
ag1134
ag1134
ag1134
ag1134
aS'1653'
p1135
ag1135
ag1135
ag1135
ag1135
ag1135
ag1135
aS'1655'
p1136
ag1136
ag1136
ag1136
ag1136
ag1136
ag1136
aS'1656'
p1137
ag1137
ag1137
ag1137
ag1137
ag1137
ag1137
aS'1657'
p1138
ag1138
ag1138
ag1138
ag1138
ag1138
ag1138
aS'1658'
p1139
ag1139
ag1139
ag1139
ag1139
ag1139
ag1139
aS'1659'
p1140
ag1140
ag1140
ag1140
ag1140
ag1140
ag1140
aS'1660'
p1141
ag1141
ag1141
ag1141
ag1141
ag1141
ag1141
aS'1661'
p1142
ag1142
ag1142
ag1142
ag1142
ag1142
ag1142
aS'1665'
p1143
ag1143
ag1143
ag1143
ag1143
ag1143
ag1143
aS'1666'
p1144
ag1144
ag1144
ag1144
ag1144
ag1144
ag1144
aS'1667'
p1145
ag1145
ag1145
ag1145
ag1145
ag1145
ag1145
aS'1668'
p1146
ag1146
ag1146
ag1146
ag1146
ag1146
ag1146
aS'1670'
p1147
ag1147
ag1147
ag1147
ag1147
ag1147
ag1147
aS'1671'
p1148
ag1148
ag1148
ag1148
ag1148
ag1148
ag1148
aS'1673'
p1149
ag1149
ag1149
ag1149
ag1149
ag1149
ag1149
aS'1674'
p1150
ag1150
ag1150
ag1150
ag1150
ag1150
ag1150
aS'1675'
p1151
ag1151
ag1151
ag1151
ag1151
ag1151
ag1151
aS'1676'
p1152
ag1152
ag1152
ag1152
ag1152
ag1152
ag1152
aS'1677'
p1153
ag1153
ag1153
ag1153
ag1153
ag1153
ag1153
aS'1678'
p1154
ag1154
ag1154
ag1154
ag1154
ag1154
ag1154
aS'1681'
p1155
ag1155
ag1155
ag1155
ag1155
ag1155
ag1155
aS'1682'
p1156
ag1156
ag1156
ag1156
ag1156
ag1156
ag1156
aS'1684'
p1157
ag1157
ag1157
ag1157
ag1157
ag1157
ag1157
aS'1685'
p1158
ag1158
ag1158
ag1158
ag1158
ag1158
ag1158
aS'1686'
p1159
ag1159
ag1159
ag1159
ag1159
ag1159
ag1159
aS'1687'
p1160
ag1160
ag1160
ag1160
ag1160
ag1160
ag1160
aS'1688'
p1161
ag1161
ag1161
ag1161
ag1161
ag1161
ag1161
aS'1689'
p1162
ag1162
ag1162
ag1162
ag1162
ag1162
ag1162
aS'1690'
p1163
ag1163
ag1163
ag1163
ag1163
ag1163
ag1163
aS'1692'
p1164
ag1164
ag1164
ag1164
ag1164
ag1164
ag1164
aS'1693'
p1165
ag1165
ag1165
ag1165
ag1165
ag1165
ag1165
aS'1694'
p1166
ag1166
ag1166
ag1166
ag1166
ag1166
ag1166
aS'1696'
p1167
ag1167
ag1167
ag1167
ag1167
ag1167
ag1167
aS'1698'
p1168
ag1168
ag1168
ag1168
ag1168
ag1168
ag1168
aS'1699'
p1169
ag1169
ag1169
ag1169
ag1169
ag1169
ag1169
aS'1704'
p1170
ag1170
ag1170
ag1170
ag1170
ag1170
ag1170
aS'1705'
p1171
ag1171
ag1171
ag1171
ag1171
ag1171
ag1171
aS'1707'
p1172
ag1172
ag1172
ag1172
ag1172
ag1172
ag1172
aS'1708'
p1173
ag1173
ag1173
ag1173
ag1173
ag1173
ag1173
aS'1711'
p1174
ag1174
ag1174
ag1174
ag1174
ag1174
ag1174
aS'1712'
p1175
ag1175
ag1175
ag1175
ag1175
ag1175
ag1175
aS'1713'
p1176
ag1176
ag1176
ag1176
ag1176
ag1176
ag1176
aS'1715'
p1177
ag1177
ag1177
ag1177
ag1177
ag1177
ag1177
aS'1716'
p1178
ag1178
ag1178
ag1178
ag1178
ag1178
ag1178
aS'1717'
p1179
ag1179
ag1179
ag1179
ag1179
ag1179
ag1179
aS'1719'
p1180
ag1180
ag1180
ag1180
ag1180
ag1180
ag1180
aS'1721'
p1181
ag1181
ag1181
ag1181
ag1181
ag1181
ag1181
aS'1722'
p1182
ag1182
ag1182
ag1182
ag1182
ag1182
ag1182
aS'1723'
p1183
ag1183
ag1183
ag1183
ag1183
ag1183
ag1183
aS'1724'
p1184
ag1184
ag1184
ag1184
ag1184
ag1184
ag1184
aS'1726'
p1185
ag1185
ag1185
ag1185
ag1185
ag1185
ag1185
aS'1729'
p1186
ag1186
ag1186
ag1186
ag1186
ag1186
ag1186
aS'1731'
p1187
ag1187
ag1187
ag1187
ag1187
ag1187
ag1187
aS'1732'
p1188
ag1188
ag1188
ag1188
ag1188
ag1188
ag1188
aS'1734'
p1189
ag1189
ag1189
ag1189
ag1189
ag1189
ag1189
aS'1735'
p1190
ag1190
ag1190
ag1190
ag1190
ag1190
ag1190
aS'1736'
p1191
ag1191
ag1191
ag1191
ag1191
ag1191
ag1191
aS'1739'
p1192
ag1192
ag1192
ag1192
ag1192
ag1192
ag1192
aS'1740'
p1193
ag1193
ag1193
ag1193
ag1193
ag1193
ag1193
aS'1741'
p1194
ag1194
ag1194
ag1194
ag1194
ag1194
ag1194
aS'1742'
p1195
ag1195
ag1195
ag1195
ag1195
ag1195
ag1195
aS'1743'
p1196
ag1196
ag1196
ag1196
ag1196
ag1196
ag1196
aS'1745'
p1197
ag1197
ag1197
ag1197
ag1197
ag1197
ag1197
aS'1748'
p1198
ag1198
ag1198
ag1198
ag1198
ag1198
ag1198
aS'1749'
p1199
ag1199
ag1199
ag1199
ag1199
ag1199
ag1199
aS'1750'
p1200
ag1200
ag1200
ag1200
ag1200
ag1200
ag1200
aS'1751'
p1201
ag1201
ag1201
ag1201
ag1201
ag1201
ag1201
aS'1752'
p1202
ag1202
ag1202
ag1202
ag1202
ag1202
ag1202
aS'1754'
p1203
ag1203
ag1203
ag1203
ag1203
ag1203
ag1203
aS'1755'
p1204
ag1204
ag1204
ag1204
ag1204
ag1204
ag1204
aS'1756'
p1205
ag1205
ag1205
ag1205
ag1205
ag1205
ag1205
aS'1758'
p1206
ag1206
ag1206
ag1206
ag1206
ag1206
ag1206
aS'1760'
p1207
ag1207
ag1207
ag1207
ag1207
ag1207
ag1207
aS'1762'
p1208
ag1208
ag1208
ag1208
ag1208
ag1208
ag1208
aS'1763'
p1209
ag1209
ag1209
ag1209
ag1209
ag1209
ag1209
aS'1764'
p1210
ag1210
ag1210
ag1210
ag1210
ag1210
ag1210
aS'1765'
p1211
ag1211
ag1211
ag1211
ag1211
ag1211
ag1211
aS'1766'
p1212
ag1212
ag1212
ag1212
ag1212
ag1212
ag1212
aS'1767'
p1213
ag1213
ag1213
ag1213
ag1213
ag1213
ag1213
aS'1768'
p1214
ag1214
ag1214
ag1214
ag1214
ag1214
ag1214
aS'1770'
p1215
ag1215
ag1215
ag1215
ag1215
ag1215
ag1215
aS'1771'
p1216
ag1216
ag1216
ag1216
ag1216
ag1216
ag1216
aS'1773'
p1217
ag1217
ag1217
ag1217
ag1217
ag1217
ag1217
aS'1775'
p1218
ag1218
ag1218
ag1218
ag1218
ag1218
ag1218
aS'1776'
p1219
ag1219
ag1219
ag1219
ag1219
ag1219
ag1219
aS'1778'
p1220
ag1220
ag1220
ag1220
ag1220
ag1220
ag1220
aS'1779'
p1221
ag1221
ag1221
ag1221
ag1221
ag1221
ag1221
aS'1780'
p1222
ag1222
ag1222
ag1222
ag1222
ag1222
ag1222
aS'1781'
p1223
ag1223
ag1223
ag1223
ag1223
ag1223
ag1223
aS'1782'
p1224
ag1224
ag1224
ag1224
ag1224
ag1224
ag1224
aS'1783'
p1225
ag1225
ag1225
ag1225
ag1225
ag1225
ag1225
aS'1785'
p1226
ag1226
ag1226
ag1226
ag1226
ag1226
ag1226
aS'1786'
p1227
ag1227
ag1227
ag1227
ag1227
ag1227
ag1227
aS'1787'
p1228
ag1228
ag1228
ag1228
ag1228
ag1228
ag1228
aS'1788'
p1229
ag1229
ag1229
ag1229
ag1229
ag1229
ag1229
aS'1789'
p1230
ag1230
ag1230
ag1230
ag1230
ag1230
ag1230
aS'1790'
p1231
ag1231
ag1231
ag1231
ag1231
ag1231
ag1231
aS'1791'
p1232
ag1232
ag1232
ag1232
ag1232
ag1232
ag1232
aS'1794'
p1233
ag1233
ag1233
ag1233
ag1233
ag1233
ag1233
aS'1795'
p1234
ag1234
ag1234
ag1234
ag1234
ag1234
ag1234
aS'1796'
p1235
ag1235
ag1235
ag1235
ag1235
ag1235
ag1235
aS'1797'
p1236
ag1236
ag1236
ag1236
ag1236
ag1236
ag1236
aS'1798'
p1237
ag1237
ag1237
ag1237
ag1237
ag1237
ag1237
aS'1803'
p1238
ag1238
ag1238
ag1238
ag1238
ag1238
ag1238
aS'1805'
p1239
ag1239
ag1239
ag1239
ag1239
ag1239
ag1239
aS'1807'
p1240
ag1240
ag1240
ag1240
ag1240
ag1240
ag1240
aS'1810'
p1241
ag1241
ag1241
ag1241
ag1241
ag1241
ag1241
aS'1813'
p1242
ag1242
ag1242
ag1242
ag1242
ag1242
ag1242
aS'1814'
p1243
ag1243
ag1243
ag1243
ag1243
ag1243
ag1243
aS'1816'
p1244
ag1244
ag1244
ag1244
ag1244
ag1244
ag1244
aS'1817'
p1245
ag1245
ag1245
ag1245
ag1245
ag1245
ag1245
aS'1818'
p1246
ag1246
ag1246
ag1246
ag1246
ag1246
ag1246
aS'1819'
p1247
ag1247
ag1247
ag1247
ag1247
ag1247
ag1247
aS'1820'
p1248
ag1248
ag1248
ag1248
ag1248
ag1248
ag1248
aS'1821'
p1249
ag1249
ag1249
ag1249
ag1249
ag1249
ag1249
aS'1823'
p1250
ag1250
ag1250
ag1250
ag1250
ag1250
ag1250
aS'1824'
p1251
ag1251
ag1251
ag1251
ag1251
ag1251
ag1251
aS'1825'
p1252
ag1252
ag1252
ag1252
ag1252
ag1252
ag1252
aS'1827'
p1253
ag1253
ag1253
ag1253
ag1253
ag1253
ag1253
aS'1828'
p1254
ag1254
ag1254
ag1254
ag1254
ag1254
ag1254
aS'1829'
p1255
ag1255
ag1255
ag1255
ag1255
ag1255
ag1255
aS'1830'
p1256
ag1256
ag1256
ag1256
ag1256
ag1256
ag1256
aS'1831'
p1257
ag1257
ag1257
ag1257
ag1257
ag1257
ag1257
aS'1833'
p1258
ag1258
ag1258
ag1258
ag1258
ag1258
ag1258
aS'1834'
p1259
ag1259
ag1259
ag1259
ag1259
ag1259
ag1259
aS'1835'
p1260
ag1260
ag1260
ag1260
ag1260
ag1260
ag1260
aS'1837'
p1261
ag1261
ag1261
ag1261
ag1261
ag1261
ag1261
aS'1839'
p1262
ag1262
ag1262
ag1262
ag1262
ag1262
ag1262
aS'1841'
p1263
ag1263
ag1263
ag1263
ag1263
ag1263
ag1263
aS'1842'
p1264
ag1264
ag1264
ag1264
ag1264
ag1264
ag1264
aS'1847'
p1265
ag1265
ag1265
ag1265
ag1265
ag1265
ag1265
aS'1848'
p1266
ag1266
ag1266
ag1266
ag1266
ag1266
ag1266
aS'1850'
p1267
ag1267
ag1267
ag1267
ag1267
ag1267
ag1267
aS'1851'
p1268
ag1268
ag1268
ag1268
ag1268
ag1268
ag1268
aS'1852'
p1269
ag1269
ag1269
ag1269
ag1269
ag1269
ag1269
aS'1854'
p1270
ag1270
ag1270
ag1270
ag1270
ag1270
ag1270
aS'1855'
p1271
ag1271
ag1271
ag1271
ag1271
ag1271
ag1271
aS'1856'
p1272
ag1272
ag1272
ag1272
ag1272
ag1272
ag1272
aS'1857'
p1273
ag1273
ag1273
ag1273
ag1273
ag1273
ag1273
aS'1859'
p1274
ag1274
ag1274
ag1274
ag1274
ag1274
ag1274
aS'1863'
p1275
ag1275
ag1275
ag1275
ag1275
ag1275
ag1275
aS'1864'
p1276
ag1276
ag1276
ag1276
ag1276
ag1276
ag1276
aS'1865'
p1277
ag1277
ag1277
ag1277
ag1277
ag1277
ag1277
aS'1867'
p1278
ag1278
ag1278
ag1278
ag1278
ag1278
ag1278
aS'1868'
p1279
ag1279
ag1279
ag1279
ag1279
ag1279
ag1279
aS'1869'
p1280
ag1280
ag1280
ag1280
ag1280
ag1280
ag1280
aS'1870'
p1281
ag1281
ag1281
ag1281
ag1281
ag1281
ag1281
aS'1872'
p1282
ag1282
ag1282
ag1282
ag1282
ag1282
ag1282
aS'1873'
p1283
ag1283
ag1283
ag1283
ag1283
ag1283
ag1283
aS'1874'
p1284
ag1284
ag1284
ag1284
ag1284
ag1284
ag1284
aS'1876'
p1285
ag1285
ag1285
ag1285
ag1285
ag1285
ag1285
aS'1877'
p1286
ag1286
ag1286
ag1286
ag1286
ag1286
ag1286
aS'1878'
p1287
ag1287
ag1287
ag1287
ag1287
ag1287
ag1287
aS'1879'
p1288
ag1288
ag1288
ag1288
ag1288
ag1288
ag1288
aS'1880'
p1289
ag1289
ag1289
ag1289
ag1289
ag1289
ag1289
aS'1883'
p1290
ag1290
ag1290
ag1290
ag1290
ag1290
ag1290
aS'1885'
p1291
ag1291
ag1291
ag1291
ag1291
ag1291
ag1291
aS'1886'
p1292
ag1292
ag1292
ag1292
ag1292
ag1292
ag1292
aS'1887'
p1293
ag1293
ag1293
ag1293
ag1293
ag1293
ag1293
aS'1888'
p1294
ag1294
ag1294
ag1294
ag1294
ag1294
ag1294
aS'1889'
p1295
ag1295
ag1295
ag1295
ag1295
ag1295
ag1295
aS'1891'
p1296
ag1296
ag1296
ag1296
ag1296
ag1296
ag1296
aS'1892'
p1297
ag1297
ag1297
ag1297
ag1297
ag1297
ag1297
aS'1893'
p1298
ag1298
ag1298
ag1298
ag1298
ag1298
ag1298
aS'1894'
p1299
ag1299
ag1299
ag1299
ag1299
ag1299
ag1299
aS'1895'
p1300
ag1300
ag1300
ag1300
ag1300
ag1300
ag1300
aS'1897'
p1301
ag1301
ag1301
ag1301
ag1301
ag1301
ag1301
aS'1898'
p1302
ag1302
ag1302
ag1302
ag1302
ag1302
ag1302
aS'1901'
p1303
ag1303
ag1303
ag1303
ag1303
ag1303
ag1303
aS'1902'
p1304
ag1304
ag1304
ag1304
ag1304
ag1304
ag1304
aS'1903'
p1305
ag1305
ag1305
ag1305
ag1305
ag1305
ag1305
aS'1904'
p1306
ag1306
ag1306
ag1306
ag1306
ag1306
ag1306
aS'1905'
p1307
ag1307
ag1307
ag1307
ag1307
ag1307
ag1307
aS'1908'
p1308
ag1308
ag1308
ag1308
ag1308
ag1308
ag1308
aS'1909'
p1309
ag1309
ag1309
ag1309
ag1309
ag1309
ag1309
aS'1910'
p1310
ag1310
ag1310
ag1310
ag1310
ag1310
ag1310
aS'1911'
p1311
ag1311
ag1311
ag1311
ag1311
ag1311
ag1311
aS'1912'
p1312
ag1312
ag1312
ag1312
ag1312
ag1312
ag1312
aS'1914'
p1313
ag1313
ag1313
ag1313
ag1313
ag1313
ag1313
aS'1915'
p1314
ag1314
ag1314
ag1314
ag1314
ag1314
ag1314
aS'1916'
p1315
ag1315
ag1315
ag1315
ag1315
ag1315
ag1315
aS'1917'
p1316
ag1316
ag1316
ag1316
ag1316
ag1316
ag1316
aS'1918'
p1317
ag1317
ag1317
ag1317
ag1317
ag1317
ag1317
aS'1921'
p1318
ag1318
ag1318
ag1318
ag1318
ag1318
ag1318
aS'1922'
p1319
ag1319
ag1319
ag1319
ag1319
ag1319
ag1319
aS'1923'
p1320
ag1320
ag1320
ag1320
ag1320
ag1320
ag1320
aS'1924'
p1321
ag1321
ag1321
ag1321
ag1321
ag1321
ag1321
aS'1926'
p1322
ag1322
ag1322
ag1322
ag1322
ag1322
ag1322
aS'1927'
p1323
ag1323
ag1323
ag1323
ag1323
ag1323
ag1323
aS'1929'
p1324
ag1324
ag1324
ag1324
ag1324
ag1324
ag1324
aS'1933'
p1325
ag1325
ag1325
ag1325
ag1325
ag1325
ag1325
aS'1935'
p1326
ag1326
ag1326
ag1326
ag1326
ag1326
ag1326
aS'1938'
p1327
ag1327
ag1327
ag1327
ag1327
ag1327
ag1327
aS'1940'
p1328
ag1328
ag1328
ag1328
ag1328
ag1328
ag1328
aS'1941'
p1329
ag1329
ag1329
ag1329
ag1329
ag1329
ag1329
aS'1942'
p1330
ag1330
ag1330
ag1330
ag1330
ag1330
ag1330
aS'1943'
p1331
ag1331
ag1331
ag1331
ag1331
ag1331
ag1331
aS'1945'
p1332
ag1332
ag1332
ag1332
ag1332
ag1332
ag1332
aS'1947'
p1333
ag1333
ag1333
ag1333
ag1333
ag1333
ag1333
aS'1949'
p1334
ag1334
ag1334
ag1334
ag1334
ag1334
ag1334
aS'1951'
p1335
ag1335
ag1335
ag1335
ag1335
ag1335
ag1335
aS'1955'
p1336
ag1336
ag1336
ag1336
ag1336
ag1336
ag1336
aS'1956'
p1337
ag1337
ag1337
ag1337
ag1337
ag1337
ag1337
aS'1958'
p1338
ag1338
ag1338
ag1338
ag1338
ag1338
ag1338
aS'1959'
p1339
ag1339
ag1339
ag1339
ag1339
ag1339
ag1339
aS'1960'
p1340
ag1340
ag1340
ag1340
ag1340
ag1340
ag1340
aS'1961'
p1341
ag1341
ag1341
ag1341
ag1341
ag1341
ag1341
aS'1962'
p1342
ag1342
ag1342
ag1342
ag1342
ag1342
ag1342
aS'1963'
p1343
ag1343
ag1343
ag1343
ag1343
ag1343
ag1343
aS'1964'
p1344
ag1344
ag1344
ag1344
ag1344
ag1344
ag1344
aS'1965'
p1345
ag1345
ag1345
ag1345
ag1345
ag1345
ag1345
aS'1966'
p1346
ag1346
ag1346
ag1346
ag1346
ag1346
ag1346
aS'1967'
p1347
ag1347
ag1347
ag1347
ag1347
ag1347
ag1347
aS'1968'
p1348
ag1348
ag1348
ag1348
ag1348
ag1348
ag1348
aS'1970'
p1349
ag1349
ag1349
ag1349
ag1349
ag1349
ag1349
aS'1972'
p1350
ag1350
ag1350
ag1350
ag1350
ag1350
ag1350
aS'1973'
p1351
ag1351
ag1351
ag1351
ag1351
ag1351
ag1351
aS'1974'
p1352
ag1352
ag1352
ag1352
ag1352
ag1352
ag1352
aS'1978'
p1353
ag1353
ag1353
ag1353
ag1353
ag1353
ag1353
aS'1979'
p1354
ag1354
ag1354
ag1354
ag1354
aS'1981'
p1355
ag1355
ag1355
ag1355
ag1355
ag1355
ag1355
aS'1982'
p1356
ag1356
ag1356
ag1356
ag1356
ag1356
ag1356
aS'1985'
p1357
ag1357
ag1357
ag1357
ag1357
ag1357
ag1357
aS'1986'
p1358
ag1358
ag1358
ag1358
ag1358
ag1358
ag1358
aS'1987'
p1359
ag1359
ag1359
ag1359
ag1359
ag1359
ag1359
aS'1988'
p1360
ag1360
ag1360
ag1360
ag1360
ag1360
ag1360
aS'1989'
p1361
ag1361
ag1361
ag1361
ag1361
ag1361
ag1361
aS'1990'
p1362
ag1362
ag1362
ag1362
ag1362
ag1362
ag1362
aS'1991'
p1363
ag1363
ag1363
ag1363
ag1363
ag1363
ag1363
aS'1992'
p1364
ag1364
ag1364
ag1364
ag1364
ag1364
ag1364
aS'1993'
p1365
ag1365
ag1365
ag1365
ag1365
ag1365
ag1365
aS'1997'
p1366
ag1366
ag1366
ag1366
ag1366
ag1366
ag1366
aS'1998'
p1367
ag1367
ag1367
ag1367
ag1367
ag1367
ag1367
aS'1999'
p1368
ag1368
ag1368
ag1368
ag1368
ag1368
ag1368
aS'2000'
p1369
ag1369
ag1369
ag1369
ag1369
ag1369
ag1369
aS'2003'
p1370
ag1370
ag1370
ag1370
ag1370
ag1370
ag1370
aS'2004'
p1371
ag1371
ag1371
ag1371
ag1371
ag1371
ag1371
aS'2005'
p1372
ag1372
ag1372
ag1372
ag1372
ag1372
ag1372
aS'2006'
p1373
ag1373
ag1373
ag1373
ag1373
ag1373
ag1373
aS'2007'
p1374
ag1374
ag1374
ag1374
ag1374
ag1374
ag1374
aS'2009'
p1375
ag1375
ag1375
ag1375
ag1375
ag1375
ag1375
aS'2012'
p1376
ag1376
ag1376
ag1376
ag1376
ag1376
ag1376
aS'2013'
p1377
ag1377
ag1377
ag1377
ag1377
ag1377
ag1377
aS'2014'
p1378
ag1378
ag1378
ag1378
ag1378
ag1378
ag1378
aS'2015'
p1379
ag1379
ag1379
ag1379
ag1379
ag1379
ag1379
aS'2016'
p1380
ag1380
ag1380
ag1380
ag1380
ag1380
ag1380
aS'2017'
p1381
ag1381
ag1381
ag1381
ag1381
ag1381
ag1381
aS'2019'
p1382
ag1382
ag1382
ag1382
ag1382
ag1382
ag1382
aS'2020'
p1383
ag1383
ag1383
ag1383
ag1383
ag1383
ag1383
aS'2021'
p1384
ag1384
ag1384
ag1384
ag1384
ag1384
ag1384
aS'2022'
p1385
ag1385
ag1385
ag1385
ag1385
ag1385
ag1385
aS'2023'
p1386
ag1386
ag1386
ag1386
ag1386
ag1386
ag1386
aS'2024'
p1387
ag1387
ag1387
ag1387
ag1387
ag1387
ag1387
aS'2025'
p1388
ag1388
ag1388
ag1388
ag1388
ag1388
ag1388
aS'2026'
p1389
ag1389
ag1389
ag1389
ag1389
ag1389
ag1389
aS'2028'
p1390
ag1390
ag1390
ag1390
ag1390
ag1390
ag1390
aS'2029'
p1391
ag1391
ag1391
ag1391
ag1391
ag1391
ag1391
aS'2031'
p1392
ag1392
ag1392
ag1392
ag1392
ag1392
ag1392
aS'2032'
p1393
ag1393
ag1393
ag1393
ag1393
ag1393
ag1393
aS'2033'
p1394
ag1394
ag1394
ag1394
ag1394
ag1394
ag1394
aS'2035'
p1395
ag1395
ag1395
ag1395
ag1395
ag1395
ag1395
aS'2036'
p1396
ag1396
ag1396
ag1396
ag1396
ag1396
ag1396
aS'2037'
p1397
ag1397
ag1397
ag1397
ag1397
ag1397
ag1397
aS'2038'
p1398
ag1398
ag1398
ag1398
ag1398
ag1398
ag1398
aS'2040'
p1399
ag1399
ag1399
ag1399
ag1399
ag1399
ag1399
aS'2041'
p1400
ag1400
ag1400
ag1400
ag1400
ag1400
ag1400
aS'2042'
p1401
ag1401
ag1401
ag1401
ag1401
ag1401
ag1401
aS'2043'
p1402
ag1402
ag1402
ag1402
ag1402
ag1402
ag1402
aS'2044'
p1403
ag1403
ag1403
ag1403
ag1403
ag1403
ag1403
aS'2045'
p1404
ag1404
ag1404
ag1404
ag1404
ag1404
ag1404
aS'2046'
p1405
ag1405
ag1405
ag1405
ag1405
ag1405
ag1405
aS'2047'
p1406
ag1406
ag1406
ag1406
ag1406
ag1406
ag1406
aS'2048'
p1407
ag1407
ag1407
ag1407
ag1407
ag1407
ag1407
aS'2049'
p1408
ag1408
ag1408
ag1408
ag1408
ag1408
ag1408
aS'2050'
p1409
ag1409
ag1409
ag1409
ag1409
ag1409
ag1409
aS'2051'
p1410
ag1410
ag1410
ag1410
ag1410
ag1410
ag1410
aS'2052'
p1411
ag1411
ag1411
ag1411
ag1411
ag1411
ag1411
aS'2053'
p1412
ag1412
ag1412
ag1412
ag1412
ag1412
ag1412
aS'2055'
p1413
ag1413
ag1413
ag1413
ag1413
ag1413
ag1413
aS'2056'
p1414
ag1414
ag1414
ag1414
ag1414
ag1414
ag1414
aS'2057'
p1415
ag1415
ag1415
ag1415
ag1415
ag1415
ag1415
aS'2059'
p1416
ag1416
ag1416
ag1416
ag1416
ag1416
ag1416
aS'2060'
p1417
ag1417
ag1417
ag1417
ag1417
ag1417
ag1417
aS'2063'
p1418
ag1418
ag1418
ag1418
ag1418
ag1418
ag1418
aS'2064'
p1419
ag1419
ag1419
ag1419
ag1419
ag1419
ag1419
aS'2066'
p1420
ag1420
ag1420
ag1420
ag1420
ag1420
ag1420
aS'2068'
p1421
ag1421
ag1421
ag1421
ag1421
ag1421
ag1421
aS'2069'
p1422
ag1422
ag1422
ag1422
ag1422
ag1422
ag1422
aS'2070'
p1423
ag1423
ag1423
ag1423
ag1423
ag1423
ag1423
aS'2071'
p1424
ag1424
ag1424
ag1424
ag1424
ag1424
ag1424
aS'2072'
p1425
ag1425
ag1425
ag1425
ag1425
ag1425
ag1425
aS'2074'
p1426
ag1426
ag1426
ag1426
ag1426
ag1426
ag1426
aS'2077'
p1427
ag1427
ag1427
ag1427
ag1427
ag1427
ag1427
aS'2078'
p1428
ag1428
ag1428
ag1428
ag1428
ag1428
ag1428
aS'2079'
p1429
ag1429
ag1429
ag1429
ag1429
ag1429
ag1429
aS'2080'
p1430
ag1430
ag1430
ag1430
ag1430
ag1430
ag1430
aS'2081'
p1431
ag1431
ag1431
ag1431
ag1431
ag1431
ag1431
aS'2084'
p1432
ag1432
ag1432
ag1432
ag1432
ag1432
ag1432
aS'2088'
p1433
ag1433
ag1433
ag1433
ag1433
ag1433
ag1433
aS'2089'
p1434
ag1434
ag1434
ag1434
ag1434
ag1434
ag1434
aS'2091'
p1435
ag1435
ag1435
ag1435
ag1435
ag1435
ag1435
aS'2092'
p1436
ag1436
ag1436
ag1436
ag1436
ag1436
ag1436
aS'2093'
p1437
ag1437
ag1437
ag1437
ag1437
ag1437
ag1437
aS'2094'
p1438
ag1438
ag1438
ag1438
ag1438
ag1438
ag1438
aS'2095'
p1439
ag1439
ag1439
ag1439
ag1439
ag1439
ag1439
aS'2096'
p1440
ag1440
ag1440
ag1440
aS'2097'
p1441
ag1441
ag1441
ag1441
ag1441
ag1441
ag1441
aS'2098'
p1442
ag1442
ag1442
ag1442
ag1442
ag1442
ag1442
aS'2099'
p1443
ag1443
ag1443
ag1443
ag1443
ag1443
ag1443
aS'2101'
p1444
ag1444
ag1444
ag1444
ag1444
ag1444
ag1444
aS'2106'
p1445
ag1445
ag1445
ag1445
ag1445
ag1445
ag1445
aS'2113'
p1446
ag1446
ag1446
ag1446
ag1446
ag1446
ag1446
aS'2114'
p1447
ag1447
ag1447
ag1447
ag1447
ag1447
ag1447
aS'2116'
p1448
ag1448
ag1448
ag1448
ag1448
ag1448
ag1448
aS'2117'
p1449
ag1449
ag1449
ag1449
ag1449
ag1449
ag1449
aS'2118'
p1450
ag1450
ag1450
ag1450
ag1450
ag1450
ag1450
aS'2121'
p1451
ag1451
ag1451
ag1451
ag1451
ag1451
ag1451
aS'2122'
p1452
ag1452
ag1452
ag1452
ag1452
ag1452
ag1452
aS'2123'
p1453
ag1453
ag1453
ag1453
ag1453
ag1453
ag1453
aS'2124'
p1454
ag1454
ag1454
ag1454
ag1454
ag1454
ag1454
aS'2126'
p1455
ag1455
ag1455
ag1455
ag1455
ag1455
ag1455
aS'2127'
p1456
ag1456
ag1456
ag1456
ag1456
ag1456
ag1456
aS'2128'
p1457
ag1457
ag1457
ag1457
ag1457
ag1457
ag1457
aS'2129'
p1458
ag1458
ag1458
ag1458
ag1458
ag1458
ag1458
aS'2131'
p1459
ag1459
ag1459
ag1459
ag1459
ag1459
ag1459
aS'2132'
p1460
ag1460
ag1460
ag1460
ag1460
ag1460
ag1460
aS'2133'
p1461
ag1461
ag1461
ag1461
ag1461
ag1461
ag1461
aS'2135'
p1462
ag1462
ag1462
ag1462
ag1462
ag1462
ag1462
aS'2136'
p1463
ag1463
ag1463
ag1463
ag1463
ag1463
ag1463
aS'2139'
p1464
ag1464
ag1464
ag1464
ag1464
ag1464
ag1464
aS'2140'
p1465
ag1465
ag1465
ag1465
ag1465
ag1465
ag1465
aS'2141'
p1466
ag1466
ag1466
ag1466
ag1466
ag1466
ag1466
aS'2142'
p1467
ag1467
ag1467
ag1467
ag1467
ag1467
ag1467
aS'2143'
p1468
ag1468
ag1468
ag1468
ag1468
ag1468
ag1468
aS'2144'
p1469
ag1469
ag1469
ag1469
ag1469
ag1469
ag1469
aS'2146'
p1470
ag1470
ag1470
ag1470
ag1470
ag1470
ag1470
aS'2147'
p1471
ag1471
ag1471
ag1471
ag1471
ag1471
ag1471
aS'2149'
p1472
ag1472
ag1472
ag1472
ag1472
ag1472
ag1472
aS'2150'
p1473
ag1473
ag1473
ag1473
ag1473
ag1473
ag1473
aS'2153'
p1474
ag1474
ag1474
ag1474
ag1474
ag1474
ag1474
aS'2154'
p1475
ag1475
ag1475
ag1475
ag1475
ag1475
ag1475
aS'2155'
p1476
ag1476
ag1476
ag1476
ag1476
ag1476
ag1476
aS'2156'
p1477
ag1477
ag1477
ag1477
ag1477
ag1477
ag1477
aS'2158'
p1478
ag1478
ag1478
ag1478
ag1478
ag1478
ag1478
aS'2160'
p1479
ag1479
ag1479
ag1479
ag1479
ag1479
ag1479
aS'2162'
p1480
ag1480
ag1480
ag1480
ag1480
ag1480
ag1480
aS'2163'
p1481
ag1481
ag1481
ag1481
ag1481
ag1481
ag1481
aS'2164'
p1482
ag1482
ag1482
ag1482
ag1482
ag1482
ag1482
aS'2166'
p1483
ag1483
ag1483
ag1483
ag1483
ag1483
ag1483
aS'2167'
p1484
ag1484
ag1484
ag1484
ag1484
ag1484
ag1484
aS'2171'
p1485
ag1485
ag1485
ag1485
ag1485
ag1485
ag1485
aS'2178'
p1486
ag1486
aS'2179'
p1487
ag1487
ag1487
ag1487
ag1487
ag1487
ag1487
aS'2181'
p1488
ag1488
ag1488
ag1488
ag1488
ag1488
ag1488
aS'2182'
p1489
ag1489
ag1489
ag1489
ag1489
ag1489
ag1489
aS'2183'
p1490
ag1490
ag1490
ag1490
ag1490
ag1490
ag1490
aS'2184'
p1491
ag1491
ag1491
ag1491
ag1491
ag1491
ag1491
aS'2185'
p1492
ag1492
ag1492
ag1492
ag1492
ag1492
ag1492
aS'2186'
p1493
ag1493
ag1493
ag1493
ag1493
ag1493
ag1493
aS'2187'
p1494
ag1494
ag1494
ag1494
ag1494
ag1494
ag1494
aS'2188'
p1495
ag1495
ag1495
ag1495
ag1495
ag1495
ag1495
aS'2189'
p1496
ag1496
ag1496
ag1496
ag1496
ag1496
ag1496
aS'2190'
p1497
ag1497
ag1497
ag1497
ag1497
ag1497
ag1497
aS'2191'
p1498
ag1498
ag1498
ag1498
ag1498
ag1498
ag1498
aS'2192'
p1499
ag1499
ag1499
ag1499
ag1499
ag1499
ag1499
aS'2193'
p1500
ag1500
ag1500
ag1500
ag1500
ag1500
ag1500
aS'2194'
p1501
ag1501
ag1501
ag1501
ag1501
ag1501
ag1501
aS'2196'
p1502
ag1502
ag1502
ag1502
ag1502
ag1502
ag1502
aS'2197'
p1503
ag1503
ag1503
ag1503
ag1503
ag1503
ag1503
aS'2198'
p1504
ag1504
ag1504
ag1504
ag1504
ag1504
ag1504
aS'2200'
p1505
ag1505
ag1505
ag1505
ag1505
ag1505
ag1505
aS'2201'
p1506
ag1506
ag1506
ag1506
ag1506
ag1506
ag1506
aS'2203'
p1507
ag1507
ag1507
ag1507
ag1507
ag1507
ag1507
aS'2206'
p1508
ag1508
ag1508
ag1508
ag1508
ag1508
ag1508
aS'2207'
p1509
ag1509
ag1509
ag1509
ag1509
ag1509
ag1509
aS'2209'
p1510
ag1510
ag1510
ag1510
ag1510
ag1510
ag1510
aS'2210'
p1511
ag1511
ag1511
ag1511
ag1511
ag1511
ag1511
aS'2211'
p1512
ag1512
ag1512
ag1512
ag1512
ag1512
ag1512
aS'2212'
p1513
ag1513
ag1513
ag1513
ag1513
ag1513
ag1513
aS'2213'
p1514
ag1514
ag1514
ag1514
ag1514
ag1514
ag1514
aS'2214'
p1515
ag1515
ag1515
ag1515
ag1515
ag1515
ag1515
aS'2215'
p1516
ag1516
ag1516
ag1516
ag1516
ag1516
ag1516
aS'2217'
p1517
ag1517
ag1517
ag1517
ag1517
ag1517
ag1517
aS'2218'
p1518
ag1518
ag1518
ag1518
ag1518
ag1518
ag1518
aS'2219'
p1519
ag1519
ag1519
ag1519
ag1519
ag1519
ag1519
aS'2221'
p1520
ag1520
ag1520
ag1520
ag1520
ag1520
ag1520
aS'2222'
p1521
ag1521
ag1521
ag1521
ag1521
ag1521
ag1521
aS'2223'
p1522
ag1522
ag1522
ag1522
ag1522
ag1522
ag1522
aS'2225'
p1523
ag1523
ag1523
ag1523
ag1523
ag1523
ag1523
aS'2226'
p1524
ag1524
ag1524
ag1524
ag1524
ag1524
ag1524
aS'2227'
p1525
ag1525
ag1525
ag1525
ag1525
ag1525
ag1525
aS'2229'
p1526
ag1526
ag1526
ag1526
ag1526
ag1526
ag1526
aS'2230'
p1527
ag1527
ag1527
ag1527
ag1527
ag1527
ag1527
aS'2233'
p1528
ag1528
ag1528
ag1528
ag1528
ag1528
ag1528
aS'2234'
p1529
ag1529
ag1529
ag1529
ag1529
ag1529
ag1529
aS'2235'
p1530
ag1530
ag1530
ag1530
ag1530
ag1530
ag1530
aS'2236'
p1531
ag1531
ag1531
ag1531
ag1531
ag1531
ag1531
aS'2237'
p1532
ag1532
ag1532
ag1532
ag1532
ag1532
ag1532
aS'2238'
p1533
ag1533
ag1533
ag1533
ag1533
ag1533
ag1533
aS'2241'
p1534
ag1534
ag1534
ag1534
ag1534
ag1534
ag1534
aS'2242'
p1535
ag1535
ag1535
ag1535
ag1535
ag1535
ag1535
aS'2243'
p1536
ag1536
ag1536
ag1536
ag1536
ag1536
ag1536
aS'2244'
p1537
ag1537
ag1537
ag1537
ag1537
ag1537
ag1537
aS'2245'
p1538
ag1538
ag1538
ag1538
ag1538
ag1538
ag1538
aS'2246'
p1539
ag1539
ag1539
ag1539
ag1539
ag1539
ag1539
aS'2247'
p1540
ag1540
ag1540
ag1540
ag1540
ag1540
ag1540
aS'2249'
p1541
ag1541
ag1541
ag1541
ag1541
ag1541
ag1541
aS'2250'
p1542
ag1542
ag1542
ag1542
ag1542
ag1542
ag1542
aS'2252'
p1543
ag1543
ag1543
ag1543
ag1543
ag1543
ag1543
aS'2254'
p1544
ag1544
ag1544
ag1544
ag1544
ag1544
ag1544
aS'2255'
p1545
ag1545
ag1545
ag1545
ag1545
ag1545
ag1545
aS'2256'
p1546
ag1546
ag1546
ag1546
ag1546
ag1546
ag1546
aS'2257'
p1547
ag1547
ag1547
ag1547
ag1547
ag1547
ag1547
aS'2258'
p1548
ag1548
ag1548
ag1548
ag1548
ag1548
ag1548
aS'2259'
p1549
ag1549
ag1549
ag1549
ag1549
ag1549
ag1549
aS'2260'
p1550
ag1550
ag1550
ag1550
ag1550
ag1550
ag1550
aS'2261'
p1551
ag1551
ag1551
ag1551
ag1551
ag1551
ag1551
aS'2262'
p1552
ag1552
ag1552
ag1552
ag1552
ag1552
ag1552
aS'2265'
p1553
ag1553
ag1553
ag1553
ag1553
ag1553
ag1553
aS'2266'
p1554
ag1554
ag1554
ag1554
ag1554
ag1554
ag1554
aS'2268'
p1555
ag1555
ag1555
ag1555
ag1555
ag1555
ag1555
aS'2269'
p1556
ag1556
ag1556
ag1556
ag1556
ag1556
ag1556
aS'2270'
p1557
ag1557
ag1557
ag1557
ag1557
ag1557
ag1557
aS'2272'
p1558
ag1558
ag1558
ag1558
ag1558
ag1558
ag1558
aS'2274'
p1559
ag1559
ag1559
ag1559
ag1559
ag1559
ag1559
aS'2275'
p1560
ag1560
ag1560
ag1560
ag1560
ag1560
ag1560
aS'2276'
p1561
ag1561
ag1561
ag1561
ag1561
ag1561
ag1561
aS'2278'
p1562
ag1562
ag1562
ag1562
ag1562
ag1562
ag1562
aS'2279'
p1563
ag1563
ag1563
ag1563
ag1563
ag1563
ag1563
aS'2281'
p1564
ag1564
ag1564
ag1564
ag1564
ag1564
ag1564
aS'2282'
p1565
ag1565
ag1565
ag1565
ag1565
ag1565
ag1565
aS'2283'
p1566
ag1566
ag1566
ag1566
ag1566
ag1566
ag1566
aS'2284'
p1567
ag1567
ag1567
ag1567
ag1567
ag1567
ag1567
aS'2288'
p1568
ag1568
ag1568
ag1568
ag1568
ag1568
ag1568
aS'2289'
p1569
ag1569
ag1569
ag1569
ag1569
ag1569
ag1569
aS'2290'
p1570
ag1570
ag1570
ag1570
ag1570
ag1570
ag1570
aS'2292'
p1571
ag1571
ag1571
ag1571
ag1571
ag1571
ag1571
aS'2293'
p1572
ag1572
ag1572
ag1572
ag1572
ag1572
ag1572
aS'2295'
p1573
ag1573
ag1573
ag1573
ag1573
ag1573
ag1573
aS'2296'
p1574
ag1574
ag1574
ag1574
ag1574
ag1574
ag1574
aS'2298'
p1575
ag1575
ag1575
ag1575
ag1575
ag1575
ag1575
aS'2300'
p1576
ag1576
ag1576
ag1576
ag1576
ag1576
ag1576
aS'2301'
p1577
ag1577
ag1577
ag1577
ag1577
ag1577
ag1577
aS'2304'
p1578
ag1578
ag1578
ag1578
ag1578
ag1578
ag1578
aS'2305'
p1579
ag1579
ag1579
ag1579
ag1579
ag1579
ag1579
aS'2306'
p1580
ag1580
ag1580
ag1580
ag1580
ag1580
ag1580
aS'2307'
p1581
ag1581
ag1581
ag1581
ag1581
ag1581
ag1581
aS'2308'
p1582
ag1582
ag1582
ag1582
ag1582
ag1582
ag1582
aS'2309'
p1583
ag1583
ag1583
ag1583
ag1583
ag1583
ag1583
aS'2310'
p1584
ag1584
ag1584
ag1584
ag1584
ag1584
ag1584
aS'2311'
p1585
ag1585
ag1585
ag1585
ag1585
ag1585
ag1585
aS'2312'
p1586
ag1586
ag1586
ag1586
ag1586
ag1586
ag1586
aS'2314'
p1587
ag1587
ag1587
ag1587
ag1587
ag1587
ag1587
aS'2316'
p1588
ag1588
ag1588
ag1588
ag1588
ag1588
ag1588
aS'2317'
p1589
ag1589
ag1589
ag1589
ag1589
ag1589
ag1589
aS'2319'
p1590
ag1590
ag1590
ag1590
ag1590
ag1590
ag1590
aS'2320'
p1591
ag1591
ag1591
ag1591
ag1591
ag1591
ag1591
aS'2322'
p1592
ag1592
ag1592
ag1592
ag1592
ag1592
ag1592
aS'2323'
p1593
ag1593
ag1593
ag1593
ag1593
ag1593
ag1593
aS'2325'
p1594
ag1594
ag1594
ag1594
ag1594
ag1594
ag1594
aS'2326'
p1595
ag1595
ag1595
ag1595
ag1595
ag1595
ag1595
aS'2327'
p1596
ag1596
ag1596
ag1596
ag1596
ag1596
ag1596
a.